
remote.elf:     file format elf32-avr

Sections:
Idx Name          Size      VMA       LMA       File off  Algn
  0 .text         00001354  00000000  00000000  00000094  2**1
                  CONTENTS, ALLOC, LOAD, READONLY, CODE
  1 .data         00000012  00800060  00001354  000013e8  2**0
                  CONTENTS, ALLOC, LOAD, DATA
  2 .bss          0000002a  00800072  00800072  000013fa  2**0
                  ALLOC
  3 .comment      0000005c  00000000  00000000  000013fa  2**0
                  CONTENTS, READONLY
  4 .note.gnu.avr.deviceinfo 0000003c  00000000  00000000  00001458  2**2
                  CONTENTS, READONLY
  5 .debug_aranges 00000050  00000000  00000000  00001494  2**0
                  CONTENTS, READONLY, DEBUGGING
  6 .debug_info   00000b4d  00000000  00000000  000014e4  2**0
                  CONTENTS, READONLY, DEBUGGING
  7 .debug_abbrev 000002c9  00000000  00000000  00002031  2**0
                  CONTENTS, READONLY, DEBUGGING
  8 .debug_line   0000043c  00000000  00000000  000022fa  2**0
                  CONTENTS, READONLY, DEBUGGING
  9 .debug_frame  000000f0  00000000  00000000  00002738  2**2
                  CONTENTS, READONLY, DEBUGGING
 10 .debug_str    00000462  00000000  00000000  00002828  2**0
                  CONTENTS, READONLY, DEBUGGING
 11 .debug_loc    000006a9  00000000  00000000  00002c8a  2**0
                  CONTENTS, READONLY, DEBUGGING
 12 .debug_ranges 00000040  00000000  00000000  00003333  2**0
                  CONTENTS, READONLY, DEBUGGING

Disassembly of section .text:

00000000 <__vectors>:
       0:	0c 94 a7 00 	jmp	0x14e	; 0x14e <__ctors_end>
       4:	0c 94 c4 00 	jmp	0x188	; 0x188 <__bad_interrupt>
       8:	0c 94 c4 00 	jmp	0x188	; 0x188 <__bad_interrupt>
       c:	0c 94 c4 00 	jmp	0x188	; 0x188 <__bad_interrupt>
      10:	0c 94 c4 00 	jmp	0x188	; 0x188 <__bad_interrupt>
      14:	0c 94 c4 00 	jmp	0x188	; 0x188 <__bad_interrupt>
      18:	0c 94 c4 00 	jmp	0x188	; 0x188 <__bad_interrupt>
      1c:	0c 94 c4 00 	jmp	0x188	; 0x188 <__bad_interrupt>
      20:	0c 94 c4 00 	jmp	0x188	; 0x188 <__bad_interrupt>
      24:	0c 94 c4 00 	jmp	0x188	; 0x188 <__bad_interrupt>
      28:	0c 94 c4 00 	jmp	0x188	; 0x188 <__bad_interrupt>
      2c:	0c 94 c4 00 	jmp	0x188	; 0x188 <__bad_interrupt>
      30:	0c 94 c4 00 	jmp	0x188	; 0x188 <__bad_interrupt>
      34:	0c 94 c4 00 	jmp	0x188	; 0x188 <__bad_interrupt>
      38:	0c 94 c4 00 	jmp	0x188	; 0x188 <__bad_interrupt>
      3c:	0c 94 c4 00 	jmp	0x188	; 0x188 <__bad_interrupt>
      40:	0c 94 46 02 	jmp	0x48c	; 0x48c <__vector_16>
      44:	0c 94 c4 00 	jmp	0x188	; 0x188 <__bad_interrupt>
      48:	0c 94 c4 00 	jmp	0x188	; 0x188 <__bad_interrupt>
      4c:	0c 94 c4 00 	jmp	0x188	; 0x188 <__bad_interrupt>
      50:	0c 94 c4 00 	jmp	0x188	; 0x188 <__bad_interrupt>

00000054 <__trampolines_end>:
      54:	00 40       	sbci	r16, 0x00	; 0
      56:	7a 10       	cpse	r7, r10
      58:	f3 5a       	subi	r31, 0xA3	; 163
      5a:	00 a0       	ldd	r0, Z+32	; 0x20
      5c:	72 4e       	sbci	r23, 0xE2	; 226
      5e:	18 09       	sbc	r17, r8
      60:	00 10       	cpse	r0, r0
      62:	a5 d4       	rcall	.+2378   	; 0x9ae <vfprintf+0x94>
      64:	e8 00       	.word	0x00e8	; ????
      66:	00 e8       	ldi	r16, 0x80	; 128
      68:	76 48       	sbci	r23, 0x86	; 134
      6a:	17 00       	.word	0x0017	; ????
      6c:	00 e4       	ldi	r16, 0x40	; 64
      6e:	0b 54       	subi	r16, 0x4B	; 75
      70:	02 00       	.word	0x0002	; ????
      72:	00 ca       	rjmp	.-3072   	; 0xfffff474 <__eeprom_end+0xff7ef474>
      74:	9a 3b       	cpi	r25, 0xBA	; 186
      76:	00 00       	nop
      78:	00 e1       	ldi	r16, 0x10	; 16
      7a:	f5 05       	cpc	r31, r5
      7c:	00 00       	nop
      7e:	80 96       	adiw	r24, 0x20	; 32
      80:	98 00       	.word	0x0098	; ????
      82:	00 00       	nop
      84:	40 42       	sbci	r20, 0x20	; 32
      86:	0f 00       	.word	0x000f	; ????
      88:	00 00       	nop
      8a:	a0 86       	std	Z+8, r10	; 0x08
      8c:	01 00       	.word	0x0001	; ????
      8e:	00 00       	nop
      90:	10 27       	eor	r17, r16
      92:	00 00       	nop
      94:	00 00       	nop
      96:	e8 03       	fmulsu	r22, r16
      98:	00 00       	nop
      9a:	00 00       	nop
      9c:	64 00       	.word	0x0064	; ????
      9e:	00 00       	nop
      a0:	00 00       	nop
      a2:	0a 00       	.word	0x000a	; ????
      a4:	00 00       	nop
      a6:	00 00       	nop
      a8:	01 00       	.word	0x0001	; ????
      aa:	00 00       	nop
      ac:	00 00       	nop
      ae:	2c 76       	andi	r18, 0x6C	; 108
      b0:	d8 88       	ldd	r13, Y+16	; 0x10
      b2:	dc 67       	ori	r29, 0x7C	; 124
      b4:	4f 08       	sbc	r4, r15
      b6:	23 df       	rcall	.-442    	; 0xfffffefe <__eeprom_end+0xff7efefe>
      b8:	c1 df       	rcall	.-126    	; 0x3c <__zero_reg__+0x3b>
      ba:	ae 59       	subi	r26, 0x9E	; 158
      bc:	e1 b1       	in	r30, 0x01	; 1
      be:	b7 96       	adiw	r30, 0x27	; 39
      c0:	e5 e3       	ldi	r30, 0x35	; 53
      c2:	e4 53       	subi	r30, 0x34	; 52
      c4:	c6 3a       	cpi	r28, 0xA6	; 166
      c6:	e6 51       	subi	r30, 0x16	; 22
      c8:	99 76       	andi	r25, 0x69	; 105
      ca:	96 e8       	ldi	r25, 0x86	; 134
      cc:	e6 c2       	rjmp	.+1484   	; 0x69a <__floatsisf+0x3c>
      ce:	84 26       	eor	r8, r20
      d0:	eb 89       	ldd	r30, Y+19	; 0x13
      d2:	8c 9b       	sbis	0x11, 4	; 17
      d4:	62 ed       	ldi	r22, 0xD2	; 210
      d6:	40 7c       	andi	r20, 0xC0	; 192
      d8:	6f fc       	.word	0xfc6f	; ????
      da:	ef bc       	out	0x2f, r14	; 47
      dc:	9c 9f       	mul	r25, r28
      de:	40 f2       	brcs	.-112    	; 0x70 <__trampolines_end+0x1c>
      e0:	ba a5       	ldd	r27, Y+42	; 0x2a
      e2:	6f a5       	ldd	r22, Y+47	; 0x2f
      e4:	f4 90       	lpm	r15, Z
      e6:	05 5a       	subi	r16, 0xA5	; 165
      e8:	2a f7       	brpl	.-54     	; 0xb4 <__trampolines_end+0x60>
      ea:	5c 93       	st	X, r21
      ec:	6b 6c       	ori	r22, 0xCB	; 203
      ee:	f9 67       	ori	r31, 0x79	; 121
      f0:	6d c1       	rjmp	.+730    	; 0x3cc <main+0x1ac>
      f2:	1b fc       	.word	0xfc1b	; ????
      f4:	e0 e4       	ldi	r30, 0x40	; 64
      f6:	0d 47       	sbci	r16, 0x7D	; 125
      f8:	fe f5       	brtc	.+126    	; 0x178 <.do_clear_bss_loop>
      fa:	20 e6       	ldi	r18, 0x60	; 96
      fc:	b5 00       	.word	0x00b5	; ????
      fe:	d0 ed       	ldi	r29, 0xD0	; 208
     100:	90 2e       	mov	r9, r16
     102:	03 00       	.word	0x0003	; ????
     104:	94 35       	cpi	r25, 0x54	; 84
     106:	77 05       	cpc	r23, r7
     108:	00 80       	ld	r0, Z
     10a:	84 1e       	adc	r8, r20
     10c:	08 00       	.word	0x0008	; ????
     10e:	00 20       	and	r0, r0
     110:	4e 0a       	sbc	r4, r30
     112:	00 00       	nop
     114:	00 c8       	rjmp	.-4096   	; 0xfffff116 <__eeprom_end+0xff7ef116>
     116:	0c 33       	cpi	r16, 0x3C	; 60
     118:	33 33       	cpi	r19, 0x33	; 51
     11a:	33 0f       	add	r19, r19
     11c:	98 6e       	ori	r25, 0xE8	; 232
     11e:	12 83       	std	Z+2, r17	; 0x02
     120:	11 41       	sbci	r17, 0x11	; 17
     122:	ef 8d       	ldd	r30, Y+31	; 0x1f
     124:	21 14       	cp	r2, r1
     126:	89 3b       	cpi	r24, 0xB9	; 185
     128:	e6 55       	subi	r30, 0x56	; 86
     12a:	16 cf       	rjmp	.-468    	; 0xffffff58 <__eeprom_end+0xff7eff58>
     12c:	fe e6       	ldi	r31, 0x6E	; 110
     12e:	db 18       	sub	r13, r11
     130:	d1 84       	ldd	r13, Z+9	; 0x09
     132:	4b 38       	cpi	r20, 0x8B	; 139
     134:	1b f7       	brvc	.-58     	; 0xfc <__trampolines_end+0xa8>
     136:	7c 1d       	adc	r23, r12
     138:	90 1d       	adc	r25, r0
     13a:	a4 bb       	out	0x14, r26	; 20
     13c:	e4 24       	eor	r14, r4
     13e:	20 32       	cpi	r18, 0x20	; 32
     140:	84 72       	andi	r24, 0x24	; 36
     142:	5e 22       	and	r5, r30
     144:	81 00       	.word	0x0081	; ????
     146:	c9 f1       	breq	.+114    	; 0x1ba <_Z10USART_Initm+0x2e>
     148:	24 ec       	ldi	r18, 0xC4	; 196
     14a:	a1 e5       	ldi	r26, 0x51	; 81
     14c:	3d 27       	eor	r19, r29

0000014e <__ctors_end>:
     14e:	11 24       	eor	r1, r1
     150:	1f be       	out	0x3f, r1	; 63
     152:	cf e5       	ldi	r28, 0x5F	; 95
     154:	d8 e0       	ldi	r29, 0x08	; 8
     156:	de bf       	out	0x3e, r29	; 62
     158:	cd bf       	out	0x3d, r28	; 61

0000015a <__do_copy_data>:
     15a:	10 e0       	ldi	r17, 0x00	; 0
     15c:	a0 e6       	ldi	r26, 0x60	; 96
     15e:	b0 e0       	ldi	r27, 0x00	; 0
     160:	e4 e5       	ldi	r30, 0x54	; 84
     162:	f3 e1       	ldi	r31, 0x13	; 19
     164:	02 c0       	rjmp	.+4      	; 0x16a <__do_copy_data+0x10>
     166:	05 90       	lpm	r0, Z+
     168:	0d 92       	st	X+, r0
     16a:	a2 37       	cpi	r26, 0x72	; 114
     16c:	b1 07       	cpc	r27, r17
     16e:	d9 f7       	brne	.-10     	; 0x166 <__do_copy_data+0xc>

00000170 <__do_clear_bss>:
     170:	20 e0       	ldi	r18, 0x00	; 0
     172:	a2 e7       	ldi	r26, 0x72	; 114
     174:	b0 e0       	ldi	r27, 0x00	; 0
     176:	01 c0       	rjmp	.+2      	; 0x17a <.do_clear_bss_start>

00000178 <.do_clear_bss_loop>:
     178:	1d 92       	st	X+, r1

0000017a <.do_clear_bss_start>:
     17a:	ac 39       	cpi	r26, 0x9C	; 156
     17c:	b2 07       	cpc	r27, r18
     17e:	e1 f7       	brne	.-8      	; 0x178 <.do_clear_bss_loop>
     180:	0e 94 10 01 	call	0x220	; 0x220 <main>
     184:	0c 94 a8 09 	jmp	0x1350	; 0x1350 <_exit>

00000188 <__bad_interrupt>:
     188:	0c 94 00 00 	jmp	0	; 0x0 <__vectors>

0000018c <_Z10USART_Initm>:

char USART_RxChar()									/* Data receiving function */
{
	while (!(UCSRA & (1 << RXC)));					/* Wait until new data receive */
	return(UDR);									/* Get and return received data */
}
     18c:	2a b1       	in	r18, 0x0a	; 10
     18e:	28 69       	ori	r18, 0x98	; 152
     190:	2a b9       	out	0x0a, r18	; 10
     192:	20 b5       	in	r18, 0x20	; 32
     194:	26 68       	ori	r18, 0x86	; 134
     196:	20 bd       	out	0x20, r18	; 32
     198:	dc 01       	movw	r26, r24
     19a:	cb 01       	movw	r24, r22
     19c:	88 0f       	add	r24, r24
     19e:	99 1f       	adc	r25, r25
     1a0:	aa 1f       	adc	r26, r26
     1a2:	bb 1f       	adc	r27, r27
     1a4:	88 0f       	add	r24, r24
     1a6:	99 1f       	adc	r25, r25
     1a8:	aa 1f       	adc	r26, r26
     1aa:	bb 1f       	adc	r27, r27
     1ac:	9c 01       	movw	r18, r24
     1ae:	ad 01       	movw	r20, r26
     1b0:	22 0f       	add	r18, r18
     1b2:	33 1f       	adc	r19, r19
     1b4:	44 1f       	adc	r20, r20
     1b6:	55 1f       	adc	r21, r21
     1b8:	22 0f       	add	r18, r18
     1ba:	33 1f       	adc	r19, r19
     1bc:	44 1f       	adc	r20, r20
     1be:	55 1f       	adc	r21, r21
     1c0:	60 e0       	ldi	r22, 0x00	; 0
     1c2:	74 e2       	ldi	r23, 0x24	; 36
     1c4:	84 ef       	ldi	r24, 0xF4	; 244
     1c6:	90 e0       	ldi	r25, 0x00	; 0
     1c8:	0e 94 28 04 	call	0x850	; 0x850 <__udivmodsi4>
     1cc:	8f ef       	ldi	r24, 0xFF	; 255
     1ce:	82 0f       	add	r24, r18
     1d0:	89 b9       	out	0x09, r24	; 9
     1d2:	da 01       	movw	r26, r20
     1d4:	c9 01       	movw	r24, r18
     1d6:	01 97       	sbiw	r24, 0x01	; 1
     1d8:	a1 09       	sbc	r26, r1
     1da:	b1 09       	sbc	r27, r1
     1dc:	89 2f       	mov	r24, r25
     1de:	9a 2f       	mov	r25, r26
     1e0:	ab 2f       	mov	r26, r27
     1e2:	bb 27       	eor	r27, r27
     1e4:	80 bd       	out	0x20, r24	; 32
     1e6:	08 95       	ret

000001e8 <_Z12USART_TxCharc>:

void USART_TxChar(char data)						/* Data transmitting function */
{
	UDR = data;										/* Write data to be transmitting in UDR */
     1e8:	8c b9       	out	0x0c, r24	; 12
	while (!(UCSRA & (1<<UDRE)));					/* Wait until data transmit and buffer get empty */
     1ea:	5d 9b       	sbis	0x0b, 5	; 11
     1ec:	fe cf       	rjmp	.-4      	; 0x1ea <_Z12USART_TxCharc+0x2>
}
     1ee:	08 95       	ret

000001f0 <_Z16USART_SendStringPc>:

void USART_SendString(char *str)					/* Send string of USART data function */
{
     1f0:	cf 93       	push	r28
     1f2:	df 93       	push	r29
     1f4:	ec 01       	movw	r28, r24
	int i=0;
	while (str[i]!=0)
     1f6:	88 81       	ld	r24, Y
     1f8:	88 23       	and	r24, r24
     1fa:	31 f0       	breq	.+12     	; 0x208 <_Z16USART_SendStringPc+0x18>
     1fc:	21 96       	adiw	r28, 0x01	; 1
	{
		USART_TxChar(str[i]);						/* Send each char of string till the NULL */
     1fe:	0e 94 f4 00 	call	0x1e8	; 0x1e8 <_Z12USART_TxCharc>
}

void USART_SendString(char *str)					/* Send string of USART data function */
{
	int i=0;
	while (str[i]!=0)
     202:	89 91       	ld	r24, Y+
     204:	81 11       	cpse	r24, r1
     206:	fb cf       	rjmp	.-10     	; 0x1fe <_Z16USART_SendStringPc+0xe>
	{
		USART_TxChar(str[i]);						/* Send each char of string till the NULL */
		i++;
	}
}
     208:	df 91       	pop	r29
     20a:	cf 91       	pop	r28
     20c:	08 95       	ret

0000020e <_Z8ADC_Initv>:

}

void ADC_Init(void)
{	
	ADCSRA|=1<<ADPS2|1<<ADPS1|1<<ADPS0;			//The value of ADC frequency must be less than 200Khz so ADPS1:0 must be selected correctly
     20e:	86 b1       	in	r24, 0x06	; 6
     210:	87 60       	ori	r24, 0x07	; 7
     212:	86 b9       	out	0x06, r24	; 6
	ADMUX|=1<<REFS0|1<<MUX2;				//|1<<REFS1		Here,Using external 5V as reference
     214:	87 b1       	in	r24, 0x07	; 7
     216:	84 64       	ori	r24, 0x44	; 68
     218:	87 b9       	out	0x07, r24	; 7
	ADCSRA|=1<<ADIE;
     21a:	33 9a       	sbi	0x06, 3	; 6
	ADCSRA|=1<<ADEN;
     21c:	37 9a       	sbi	0x06, 7	; 6
     21e:	08 95       	ret

00000220 <main>:
	}
};

int main(void)
{
	sei();
     220:	78 94       	sei
	Buttons Front_Right(2,Front_Button,Front_Right_ASCII);
	Buttons Front_Left(2,Front_Button,Front_Left_ASCII);
	Buttons Extra1(4,Extra_1_Button,Extra_1_ASCII);
	Buttons Extra2(4,Extra_2_Button,Extra_2_ASCII);
	
	DDRB |= ~(1<<Emergency_Button);			//Making Input Ports
     222:	87 b3       	in	r24, 0x17	; 23
     224:	8b 6f       	ori	r24, 0xFB	; 251
     226:	87 bb       	out	0x17, r24	; 23
	PORTB = 0x00;
     228:	18 ba       	out	0x18, r1	; 24
	DDRD |= ~(1<<Front_Button|1<<Back_Button|1<<Fan_Button|1<<Brake_Button|1<<Lev_Up_Button|1<<Lev_Down_Button);
     22a:	81 b3       	in	r24, 0x11	; 17
     22c:	83 60       	ori	r24, 0x03	; 3
     22e:	81 bb       	out	0x11, r24	; 17
	PORTD = 0x00;
     230:	12 ba       	out	0x12, r1	; 18
	DDRC |= ~(1<<Left_Button|1<<Right_Button|1<<Extra_1_Button|1<<Extra_2_Button);
     232:	84 b3       	in	r24, 0x14	; 20
     234:	8c 63       	ori	r24, 0x3C	; 60
     236:	84 bb       	out	0x14, r24	; 20
	PORTC = 0x00;
     238:	15 ba       	out	0x15, r1	; 21
	
	/**************Optional: Also make internal Pull-Ups*********************/
	ADC_Init(); 
     23a:	0e 94 07 01 	call	0x20e	; 0x20e <_Z8ADC_Initv>
	USART_Init(38400);
     23e:	60 e0       	ldi	r22, 0x00	; 0
     240:	76 e9       	ldi	r23, 0x96	; 150
     242:	80 e0       	ldi	r24, 0x00	; 0
     244:	90 e0       	ldi	r25, 0x00	; 0
     246:	0e 94 c6 00 	call	0x18c	; 0x18c <_Z10USART_Initm>
	
	USART_SendString("USART Tested!");
     24a:	80 e6       	ldi	r24, 0x60	; 96
     24c:	90 e0       	ldi	r25, 0x00	; 0
     24e:	0e 94 f8 00 	call	0x1f0	; 0x1f0 <_Z16USART_SendStringPc>
{
	sei();
	int PIND_New_Value,PINC_New_Value,PIND_Previous_Value,PINC_Previous_Value;
	int NULL_previous,NULL_new;
	uint16_t TWO_Buttons_Previous_Value,TWO_Buttons_New_Value;
	bool check = false ,haha = false;
     252:	91 2c       	mov	r9, r1
				{
					switch(TWO_Buttons_New_Value)
					{
						case (D_FRONT_PRESSED+C_RIGHT_PRESSED):
						Front_Right.Send_ASCII();
						check = true;
     254:	88 24       	eor	r8, r8
     256:	83 94       	inc	r8
				if((PINC == PINC_RELEASED)&&(PIND == PIND_RELEASED))
				{
					if(check == true)
					{
						Brake.Send_ASCII();
						check = false;
     258:	71 2c       	mov	r7, r1
		  
				 if((abs(new_ADC_value - old_ADC_val))>=20)
				  {
					  send_value =  3 + ((0.085)*new_ADC_value);
					  dtostrf(send_value,3,2,float_);
					  sprintf(buffer,"%d",send_value);
     25a:	0f 2e       	mov	r0, r31
     25c:	fe e6       	ldi	r31, 0x6E	; 110
     25e:	af 2e       	mov	r10, r31
     260:	f0 e0       	ldi	r31, 0x00	; 0
     262:	bf 2e       	mov	r11, r31
     264:	f0 2d       	mov	r31, r0
     266:	0f 2e       	mov	r0, r31
     268:	fc e7       	ldi	r31, 0x7C	; 124
     26a:	cf 2e       	mov	r12, r31
     26c:	f0 e0       	ldi	r31, 0x00	; 0
     26e:	df 2e       	mov	r13, r31
     270:	f0 2d       	mov	r31, r0
	
		while(1)
		{
			
		
				TWO_Buttons_New_Value = PINC + PIND;
     272:	83 b3       	in	r24, 0x13	; 19
     274:	c0 b3       	in	r28, 0x10	; 16
     276:	d0 e0       	ldi	r29, 0x00	; 0
     278:	c8 0f       	add	r28, r24
     27a:	d1 1d       	adc	r29, r1
		
				if(TWO_Buttons_New_Value!=TWO_Buttons_Previous_Value)
     27c:	ce 15       	cp	r28, r14
     27e:	df 05       	cpc	r29, r15
     280:	09 f4       	brne	.+2      	; 0x284 <main+0x64>
     282:	90 c0       	rjmp	.+288    	; 0x3a4 <main+0x184>
				{
					switch(TWO_Buttons_New_Value)
     284:	c2 3c       	cpi	r28, 0xC2	; 194
     286:	d1 05       	cpc	r29, r1
     288:	29 f0       	breq	.+10     	; 0x294 <main+0x74>
     28a:	c2 30       	cpi	r28, 0x02	; 2
     28c:	81 e0       	ldi	r24, 0x01	; 1
     28e:	d8 07       	cpc	r29, r24
     290:	79 f0       	breq	.+30     	; 0x2b0 <main+0x90>
     292:	1c c0       	rjmp	.+56     	; 0x2cc <main+0xac>
	}

	void Send_ASCII(void)
	{
		//UART_Transmit
		USART_TxChar(Ascii);
     294:	86 e3       	ldi	r24, 0x36	; 54
     296:	0e 94 f4 00 	call	0x1e8	; 0x1e8 <_Z12USART_TxCharc>
	#else
		//round up by default
		__ticks_dc = (uint32_t)(ceil(fabs(__tmp)));
	#endif

	__builtin_avr_delay_cycles(__ticks_dc);
     29a:	8f e1       	ldi	r24, 0x1F	; 31
     29c:	9e e4       	ldi	r25, 0x4E	; 78
     29e:	01 97       	sbiw	r24, 0x01	; 1
     2a0:	f1 f7       	brne	.-4      	; 0x29e <main+0x7e>
     2a2:	00 c0       	rjmp	.+0      	; 0x2a4 <main+0x84>
     2a4:	00 00       	nop
		_delay_ms(5);
		USART_TxChar('.');
     2a6:	8e e2       	ldi	r24, 0x2E	; 46
     2a8:	0e 94 f4 00 	call	0x1e8	; 0x1e8 <_Z12USART_TxCharc>
				{
					switch(TWO_Buttons_New_Value)
					{
						case (D_FRONT_PRESSED+C_RIGHT_PRESSED):
						Front_Right.Send_ASCII();
						check = true;
     2ac:	98 2c       	mov	r9, r8
     2ae:	73 c0       	rjmp	.+230    	; 0x396 <main+0x176>
	}

	void Send_ASCII(void)
	{
		//UART_Transmit
		USART_TxChar(Ascii);
     2b0:	85 e3       	ldi	r24, 0x35	; 53
     2b2:	0e 94 f4 00 	call	0x1e8	; 0x1e8 <_Z12USART_TxCharc>
     2b6:	8f e1       	ldi	r24, 0x1F	; 31
     2b8:	9e e4       	ldi	r25, 0x4E	; 78
     2ba:	01 97       	sbiw	r24, 0x01	; 1
     2bc:	f1 f7       	brne	.-4      	; 0x2ba <main+0x9a>
     2be:	00 c0       	rjmp	.+0      	; 0x2c0 <main+0xa0>
     2c0:	00 00       	nop
		_delay_ms(5);
		USART_TxChar('.');
     2c2:	8e e2       	ldi	r24, 0x2E	; 46
     2c4:	0e 94 f4 00 	call	0x1e8	; 0x1e8 <_Z12USART_TxCharc>
						haha = false;
						break;
				
						case (D_FRONT_PRESSED+C_LEFT_PRESSED):
						Front_Left.Send_ASCII();
						check = true;
     2c8:	98 2c       	mov	r9, r8
     2ca:	65 c0       	rjmp	.+202    	; 0x396 <main+0x176>
						haha = false;
						break;
				
						default:
							if(PIND == D_FRONT_PRESSED )
     2cc:	80 b3       	in	r24, 0x10	; 16
     2ce:	8f 37       	cpi	r24, 0x7F	; 127
     2d0:	71 f4       	brne	.+28     	; 0x2ee <main+0xce>
	}

	void Send_ASCII(void)
	{
		//UART_Transmit
		USART_TxChar(Ascii);
     2d2:	81 e3       	ldi	r24, 0x31	; 49
     2d4:	0e 94 f4 00 	call	0x1e8	; 0x1e8 <_Z12USART_TxCharc>
     2d8:	8f e1       	ldi	r24, 0x1F	; 31
     2da:	9e e4       	ldi	r25, 0x4E	; 78
     2dc:	01 97       	sbiw	r24, 0x01	; 1
     2de:	f1 f7       	brne	.-4      	; 0x2dc <main+0xbc>
     2e0:	00 c0       	rjmp	.+0      	; 0x2e2 <main+0xc2>
     2e2:	00 00       	nop
		_delay_ms(5);
		USART_TxChar('.');
     2e4:	8e e2       	ldi	r24, 0x2E	; 46
     2e6:	0e 94 f4 00 	call	0x1e8	; 0x1e8 <_Z12USART_TxCharc>
				
						default:
							if(PIND == D_FRONT_PRESSED )
							{
								Front.Send_ASCII();
								check = true;
     2ea:	98 2c       	mov	r9, r8
     2ec:	54 c0       	rjmp	.+168    	; 0x396 <main+0x176>
								break;
					
							}
							else if(PIND ==D_BACK_PRESSED )
     2ee:	80 b3       	in	r24, 0x10	; 16
     2f0:	8f 3e       	cpi	r24, 0xEF	; 239
     2f2:	71 f4       	brne	.+28     	; 0x310 <main+0xf0>
	}

	void Send_ASCII(void)
	{
		//UART_Transmit
		USART_TxChar(Ascii);
     2f4:	82 e3       	ldi	r24, 0x32	; 50
     2f6:	0e 94 f4 00 	call	0x1e8	; 0x1e8 <_Z12USART_TxCharc>
     2fa:	8f e1       	ldi	r24, 0x1F	; 31
     2fc:	9e e4       	ldi	r25, 0x4E	; 78
     2fe:	01 97       	sbiw	r24, 0x01	; 1
     300:	f1 f7       	brne	.-4      	; 0x2fe <main+0xde>
     302:	00 c0       	rjmp	.+0      	; 0x304 <main+0xe4>
     304:	00 00       	nop
		_delay_ms(5);
		USART_TxChar('.');
     306:	8e e2       	ldi	r24, 0x2E	; 46
     308:	0e 94 f4 00 	call	0x1e8	; 0x1e8 <_Z12USART_TxCharc>
					
							}
							else if(PIND ==D_BACK_PRESSED )
							{
								Back.Send_ASCII();
								check = true;
     30c:	98 2c       	mov	r9, r8
     30e:	43 c0       	rjmp	.+134    	; 0x396 <main+0x176>
								break;
							}
					
							else if(PINC == C_RIGHT_PRESSED )
     310:	83 b3       	in	r24, 0x13	; 19
     312:	83 34       	cpi	r24, 0x43	; 67
     314:	71 f4       	brne	.+28     	; 0x332 <main+0x112>
	}

	void Send_ASCII(void)
	{
		//UART_Transmit
		USART_TxChar(Ascii);
     316:	84 e3       	ldi	r24, 0x34	; 52
     318:	0e 94 f4 00 	call	0x1e8	; 0x1e8 <_Z12USART_TxCharc>
     31c:	8f e1       	ldi	r24, 0x1F	; 31
     31e:	9e e4       	ldi	r25, 0x4E	; 78
     320:	01 97       	sbiw	r24, 0x01	; 1
     322:	f1 f7       	brne	.-4      	; 0x320 <main+0x100>
     324:	00 c0       	rjmp	.+0      	; 0x326 <main+0x106>
     326:	00 00       	nop
		_delay_ms(5);
		USART_TxChar('.');
     328:	8e e2       	ldi	r24, 0x2E	; 46
     32a:	0e 94 f4 00 	call	0x1e8	; 0x1e8 <_Z12USART_TxCharc>
							}
					
							else if(PINC == C_RIGHT_PRESSED )
							{
								Right.Send_ASCII();
								check = true;
     32e:	98 2c       	mov	r9, r8
     330:	32 c0       	rjmp	.+100    	; 0x396 <main+0x176>
								break;
							}
							else if(PINC ==C_LEFT_PRESSED )
     332:	83 b3       	in	r24, 0x13	; 19
     334:	83 38       	cpi	r24, 0x83	; 131
     336:	71 f4       	brne	.+28     	; 0x354 <main+0x134>
	}

	void Send_ASCII(void)
	{
		//UART_Transmit
		USART_TxChar(Ascii);
     338:	83 e3       	ldi	r24, 0x33	; 51
     33a:	0e 94 f4 00 	call	0x1e8	; 0x1e8 <_Z12USART_TxCharc>
     33e:	8f e1       	ldi	r24, 0x1F	; 31
     340:	9e e4       	ldi	r25, 0x4E	; 78
     342:	01 97       	sbiw	r24, 0x01	; 1
     344:	f1 f7       	brne	.-4      	; 0x342 <main+0x122>
     346:	00 c0       	rjmp	.+0      	; 0x348 <main+0x128>
     348:	00 00       	nop
		_delay_ms(5);
		USART_TxChar('.');
     34a:	8e e2       	ldi	r24, 0x2E	; 46
     34c:	0e 94 f4 00 	call	0x1e8	; 0x1e8 <_Z12USART_TxCharc>
							}
							else if(PINC ==C_LEFT_PRESSED )
							{
						
								Left.Send_ASCII();
								check = true;
     350:	98 2c       	mov	r9, r8
     352:	21 c0       	rjmp	.+66     	; 0x396 <main+0x176>
								break;
							}
							else if(PIND == D_LEV_DOWN_PRESSED )
     354:	80 b3       	in	r24, 0x10	; 16
     356:	8f 3d       	cpi	r24, 0xDF	; 223
     358:	71 f4       	brne	.+28     	; 0x376 <main+0x156>
	}

	void Send_ASCII(void)
	{
		//UART_Transmit
		USART_TxChar(Ascii);
     35a:	84 e6       	ldi	r24, 0x64	; 100
     35c:	0e 94 f4 00 	call	0x1e8	; 0x1e8 <_Z12USART_TxCharc>
     360:	8f e1       	ldi	r24, 0x1F	; 31
     362:	9e e4       	ldi	r25, 0x4E	; 78
     364:	01 97       	sbiw	r24, 0x01	; 1
     366:	f1 f7       	brne	.-4      	; 0x364 <main+0x144>
     368:	00 c0       	rjmp	.+0      	; 0x36a <main+0x14a>
     36a:	00 00       	nop
		_delay_ms(5);
		USART_TxChar('.');
     36c:	8e e2       	ldi	r24, 0x2E	; 46
     36e:	0e 94 f4 00 	call	0x1e8	; 0x1e8 <_Z12USART_TxCharc>
								break;
							}
							else if(PIND == D_LEV_DOWN_PRESSED )
							{
								Lev_Down.Send_ASCII();
								check = true;
     372:	98 2c       	mov	r9, r8
     374:	10 c0       	rjmp	.+32     	; 0x396 <main+0x176>
								break;
							}
					
							else if(PIND == D_LEV_UP_PRESSED )
     376:	80 b3       	in	r24, 0x10	; 16
     378:	8f 3b       	cpi	r24, 0xBF	; 191
     37a:	69 f4       	brne	.+26     	; 0x396 <main+0x176>
	}

	void Send_ASCII(void)
	{
		//UART_Transmit
		USART_TxChar(Ascii);
     37c:	85 e7       	ldi	r24, 0x75	; 117
     37e:	0e 94 f4 00 	call	0x1e8	; 0x1e8 <_Z12USART_TxCharc>
     382:	8f e1       	ldi	r24, 0x1F	; 31
     384:	9e e4       	ldi	r25, 0x4E	; 78
     386:	01 97       	sbiw	r24, 0x01	; 1
     388:	f1 f7       	brne	.-4      	; 0x386 <main+0x166>
     38a:	00 c0       	rjmp	.+0      	; 0x38c <main+0x16c>
     38c:	00 00       	nop
		_delay_ms(5);
		USART_TxChar('.');
     38e:	8e e2       	ldi	r24, 0x2E	; 46
     390:	0e 94 f4 00 	call	0x1e8	; 0x1e8 <_Z12USART_TxCharc>
							}
					
							else if(PIND == D_LEV_UP_PRESSED )
							{
								Lev_Up.Send_ASCII();
								check = true;
     394:	98 2c       	mov	r9, r8
     396:	8f e3       	ldi	r24, 0x3F	; 63
     398:	9c e9       	ldi	r25, 0x9C	; 156
     39a:	01 97       	sbiw	r24, 0x01	; 1
     39c:	f1 f7       	brne	.-4      	; 0x39a <main+0x17a>
     39e:	00 c0       	rjmp	.+0      	; 0x3a0 <main+0x180>
     3a0:	00 00       	nop
							}
							
							break;
					
					}
					TWO_Buttons_Previous_Value = TWO_Buttons_New_Value;
     3a2:	7e 01       	movw	r14, r28
					_delay_ms(10);
				}
			  
			
				if((PINC == PINC_RELEASED)&&(PIND == PIND_RELEASED))
     3a4:	83 b3       	in	r24, 0x13	; 19
     3a6:	83 3c       	cpi	r24, 0xC3	; 195
     3a8:	89 f4       	brne	.+34     	; 0x3cc <main+0x1ac>
     3aa:	80 b3       	in	r24, 0x10	; 16
     3ac:	8f 3f       	cpi	r24, 0xFF	; 255
     3ae:	71 f4       	brne	.+28     	; 0x3cc <main+0x1ac>
     3b0:	69 c0       	rjmp	.+210    	; 0x484 <__FUSE_REGION_LENGTH__+0x84>
	}

	void Send_ASCII(void)
	{
		//UART_Transmit
		USART_TxChar(Ascii);
     3b2:	80 e3       	ldi	r24, 0x30	; 48
     3b4:	0e 94 f4 00 	call	0x1e8	; 0x1e8 <_Z12USART_TxCharc>
     3b8:	8f e1       	ldi	r24, 0x1F	; 31
     3ba:	9e e4       	ldi	r25, 0x4E	; 78
     3bc:	01 97       	sbiw	r24, 0x01	; 1
     3be:	f1 f7       	brne	.-4      	; 0x3bc <main+0x19c>
     3c0:	00 c0       	rjmp	.+0      	; 0x3c2 <main+0x1a2>
     3c2:	00 00       	nop
		_delay_ms(5);
		USART_TxChar('.');
     3c4:	8e e2       	ldi	r24, 0x2E	; 46
     3c6:	0e 94 f4 00 	call	0x1e8	; 0x1e8 <_Z12USART_TxCharc>
				if((PINC == PINC_RELEASED)&&(PIND == PIND_RELEASED))
				{
					if(check == true)
					{
						Brake.Send_ASCII();
						check = false;
     3ca:	97 2c       	mov	r9, r7
					}
				
				}
			
		  
				 if((abs(new_ADC_value - old_ADC_val))>=20)
     3cc:	60 91 93 00 	lds	r22, 0x0093
     3d0:	70 91 94 00 	lds	r23, 0x0094
     3d4:	80 91 91 00 	lds	r24, 0x0091
     3d8:	90 91 92 00 	lds	r25, 0x0092
     3dc:	9b 01       	movw	r18, r22
     3de:	28 1b       	sub	r18, r24
     3e0:	39 0b       	sbc	r19, r25
     3e2:	c9 01       	movw	r24, r18
     3e4:	99 23       	and	r25, r25
     3e6:	24 f4       	brge	.+8      	; 0x3f0 <main+0x1d0>
     3e8:	88 27       	eor	r24, r24
     3ea:	99 27       	eor	r25, r25
     3ec:	82 1b       	sub	r24, r18
     3ee:	93 0b       	sbc	r25, r19
     3f0:	44 97       	sbiw	r24, 0x14	; 20
     3f2:	0c f4       	brge	.+2      	; 0x3f6 <main+0x1d6>
     3f4:	45 c0       	rjmp	.+138    	; 0x480 <__FUSE_REGION_LENGTH__+0x80>
				  {
					  send_value =  3 + ((0.085)*new_ADC_value);
     3f6:	07 2e       	mov	r0, r23
     3f8:	00 0c       	add	r0, r0
     3fa:	88 0b       	sbc	r24, r24
     3fc:	99 0b       	sbc	r25, r25
     3fe:	0e 94 2f 03 	call	0x65e	; 0x65e <__floatsisf>
     402:	2b e7       	ldi	r18, 0x7B	; 123
     404:	34 e1       	ldi	r19, 0x14	; 20
     406:	4e ea       	ldi	r20, 0xAE	; 174
     408:	5d e3       	ldi	r21, 0x3D	; 61
     40a:	0e 94 bb 03 	call	0x776	; 0x776 <__mulsf3>
     40e:	20 e0       	ldi	r18, 0x00	; 0
     410:	30 e0       	ldi	r19, 0x00	; 0
     412:	40 e4       	ldi	r20, 0x40	; 64
     414:	50 e4       	ldi	r21, 0x40	; 64
     416:	0e 94 8b 02 	call	0x516	; 0x516 <__addsf3>
     41a:	0e 94 fe 02 	call	0x5fc	; 0x5fc <__fixunssfsi>
     41e:	60 93 90 00 	sts	0x0090, r22
					  dtostrf(send_value,3,2,float_);
     422:	70 e0       	ldi	r23, 0x00	; 0
     424:	80 e0       	ldi	r24, 0x00	; 0
     426:	90 e0       	ldi	r25, 0x00	; 0
     428:	0e 94 2d 03 	call	0x65a	; 0x65a <__floatunsisf>
     42c:	02 e7       	ldi	r16, 0x72	; 114
     42e:	10 e0       	ldi	r17, 0x00	; 0
     430:	22 e0       	ldi	r18, 0x02	; 2
     432:	43 e0       	ldi	r20, 0x03	; 3
     434:	0e 94 4a 04 	call	0x894	; 0x894 <dtostrf>
					  sprintf(buffer,"%d",send_value);
     438:	80 91 90 00 	lds	r24, 0x0090
     43c:	1f 92       	push	r1
     43e:	8f 93       	push	r24
     440:	bf 92       	push	r11
     442:	af 92       	push	r10
     444:	df 92       	push	r13
     446:	cf 92       	push	r12
     448:	0e 94 6a 04 	call	0x8d4	; 0x8d4 <sprintf>
					   USART_SendString(buffer);
     44c:	c6 01       	movw	r24, r12
     44e:	0e 94 f8 00 	call	0x1f0	; 0x1f0 <_Z16USART_SendStringPc>
     452:	8f e1       	ldi	r24, 0x1F	; 31
     454:	9e e4       	ldi	r25, 0x4E	; 78
     456:	01 97       	sbiw	r24, 0x01	; 1
     458:	f1 f7       	brne	.-4      	; 0x456 <__FUSE_REGION_LENGTH__+0x56>
     45a:	00 c0       	rjmp	.+0      	; 0x45c <__FUSE_REGION_LENGTH__+0x5c>
     45c:	00 00       	nop
					   _delay_ms(5);
					   USART_TxChar('s');
     45e:	83 e7       	ldi	r24, 0x73	; 115
     460:	0e 94 f4 00 	call	0x1e8	; 0x1e8 <_Z12USART_TxCharc>
			   
					  old_ADC_val = new_ADC_value;
     464:	80 91 93 00 	lds	r24, 0x0093
     468:	90 91 94 00 	lds	r25, 0x0094
     46c:	90 93 92 00 	sts	0x0092, r25
     470:	80 93 91 00 	sts	0x0091, r24
     474:	0f 90       	pop	r0
     476:	0f 90       	pop	r0
     478:	0f 90       	pop	r0
     47a:	0f 90       	pop	r0
     47c:	0f 90       	pop	r0
     47e:	0f 90       	pop	r0
				  }
		  
				  ADCSRA|=1<<ADSC;
     480:	36 9a       	sbi	0x06, 6	; 6
				 
		
		}
     482:	f7 ce       	rjmp	.-530    	; 0x272 <main+0x52>
				}
			  
			
				if((PINC == PINC_RELEASED)&&(PIND == PIND_RELEASED))
				{
					if(check == true)
     484:	99 20       	and	r9, r9
     486:	09 f4       	brne	.+2      	; 0x48a <__FUSE_REGION_LENGTH__+0x8a>
     488:	a1 cf       	rjmp	.-190    	; 0x3cc <main+0x1ac>
     48a:	93 cf       	rjmp	.-218    	; 0x3b2 <main+0x192>

0000048c <__vector_16>:
	ADCSRA|=1<<ADEN;
	//ADCSRA|=1<<ADSC;
}

ISR(ADC_vect)
{
     48c:	1f 92       	push	r1
     48e:	0f 92       	push	r0
     490:	0f b6       	in	r0, 0x3f	; 63
     492:	0f 92       	push	r0
     494:	11 24       	eor	r1, r1
     496:	2f 93       	push	r18
     498:	3f 93       	push	r19
     49a:	4f 93       	push	r20
     49c:	5f 93       	push	r21
     49e:	6f 93       	push	r22
     4a0:	7f 93       	push	r23
     4a2:	8f 93       	push	r24
     4a4:	9f 93       	push	r25
     4a6:	af 93       	push	r26
     4a8:	bf 93       	push	r27
     4aa:	ef 93       	push	r30
     4ac:	ff 93       	push	r31
	Lowadc= ADCL;
     4ae:	64 b1       	in	r22, 0x04	; 4
     4b0:	60 93 97 00 	sts	0x0097, r22
	TenBitResults=ADCH<<8|Lowadc;
     4b4:	85 b1       	in	r24, 0x05	; 5
     4b6:	70 e0       	ldi	r23, 0x00	; 0
     4b8:	78 2b       	or	r23, r24
     4ba:	70 93 96 00 	sts	0x0096, r23
     4be:	60 93 95 00 	sts	0x0095, r22
	calculated=(0.1953125*TenBitResults);
     4c2:	80 e0       	ldi	r24, 0x00	; 0
     4c4:	90 e0       	ldi	r25, 0x00	; 0
     4c6:	0e 94 2d 03 	call	0x65a	; 0x65a <__floatunsisf>
     4ca:	20 e0       	ldi	r18, 0x00	; 0
     4cc:	30 e0       	ldi	r19, 0x00	; 0
     4ce:	48 e4       	ldi	r20, 0x48	; 72
     4d0:	5e e3       	ldi	r21, 0x3E	; 62
     4d2:	0e 94 bb 03 	call	0x776	; 0x776 <__mulsf3>
     4d6:	60 93 98 00 	sts	0x0098, r22
     4da:	70 93 99 00 	sts	0x0099, r23
     4de:	80 93 9a 00 	sts	0x009A, r24
     4e2:	90 93 9b 00 	sts	0x009B, r25
	new_ADC_value=(int)calculated;
     4e6:	0e 94 f7 02 	call	0x5ee	; 0x5ee <__fixsfsi>
     4ea:	70 93 94 00 	sts	0x0094, r23
     4ee:	60 93 93 00 	sts	0x0093, r22
}
     4f2:	ff 91       	pop	r31
     4f4:	ef 91       	pop	r30
     4f6:	bf 91       	pop	r27
     4f8:	af 91       	pop	r26
     4fa:	9f 91       	pop	r25
     4fc:	8f 91       	pop	r24
     4fe:	7f 91       	pop	r23
     500:	6f 91       	pop	r22
     502:	5f 91       	pop	r21
     504:	4f 91       	pop	r20
     506:	3f 91       	pop	r19
     508:	2f 91       	pop	r18
     50a:	0f 90       	pop	r0
     50c:	0f be       	out	0x3f, r0	; 63
     50e:	0f 90       	pop	r0
     510:	1f 90       	pop	r1
     512:	18 95       	reti

00000514 <__subsf3>:
     514:	50 58       	subi	r21, 0x80	; 128

00000516 <__addsf3>:
     516:	bb 27       	eor	r27, r27
     518:	aa 27       	eor	r26, r26
     51a:	0e 94 a2 02 	call	0x544	; 0x544 <__addsf3x>
     51e:	0c 94 81 03 	jmp	0x702	; 0x702 <__fp_round>
     522:	0e 94 73 03 	call	0x6e6	; 0x6e6 <__fp_pscA>
     526:	38 f0       	brcs	.+14     	; 0x536 <__addsf3+0x20>
     528:	0e 94 7a 03 	call	0x6f4	; 0x6f4 <__fp_pscB>
     52c:	20 f0       	brcs	.+8      	; 0x536 <__addsf3+0x20>
     52e:	39 f4       	brne	.+14     	; 0x53e <__addsf3+0x28>
     530:	9f 3f       	cpi	r25, 0xFF	; 255
     532:	19 f4       	brne	.+6      	; 0x53a <__addsf3+0x24>
     534:	26 f4       	brtc	.+8      	; 0x53e <__addsf3+0x28>
     536:	0c 94 70 03 	jmp	0x6e0	; 0x6e0 <__fp_nan>
     53a:	0e f4       	brtc	.+2      	; 0x53e <__addsf3+0x28>
     53c:	e0 95       	com	r30
     53e:	e7 fb       	bst	r30, 7
     540:	0c 94 6a 03 	jmp	0x6d4	; 0x6d4 <__fp_inf>

00000544 <__addsf3x>:
     544:	e9 2f       	mov	r30, r25
     546:	0e 94 92 03 	call	0x724	; 0x724 <__fp_split3>
     54a:	58 f3       	brcs	.-42     	; 0x522 <__addsf3+0xc>
     54c:	ba 17       	cp	r27, r26
     54e:	62 07       	cpc	r22, r18
     550:	73 07       	cpc	r23, r19
     552:	84 07       	cpc	r24, r20
     554:	95 07       	cpc	r25, r21
     556:	20 f0       	brcs	.+8      	; 0x560 <__addsf3x+0x1c>
     558:	79 f4       	brne	.+30     	; 0x578 <__addsf3x+0x34>
     55a:	a6 f5       	brtc	.+104    	; 0x5c4 <__addsf3x+0x80>
     55c:	0c 94 b4 03 	jmp	0x768	; 0x768 <__fp_zero>
     560:	0e f4       	brtc	.+2      	; 0x564 <__addsf3x+0x20>
     562:	e0 95       	com	r30
     564:	0b 2e       	mov	r0, r27
     566:	ba 2f       	mov	r27, r26
     568:	a0 2d       	mov	r26, r0
     56a:	0b 01       	movw	r0, r22
     56c:	b9 01       	movw	r22, r18
     56e:	90 01       	movw	r18, r0
     570:	0c 01       	movw	r0, r24
     572:	ca 01       	movw	r24, r20
     574:	a0 01       	movw	r20, r0
     576:	11 24       	eor	r1, r1
     578:	ff 27       	eor	r31, r31
     57a:	59 1b       	sub	r21, r25
     57c:	99 f0       	breq	.+38     	; 0x5a4 <__addsf3x+0x60>
     57e:	59 3f       	cpi	r21, 0xF9	; 249
     580:	50 f4       	brcc	.+20     	; 0x596 <__addsf3x+0x52>
     582:	50 3e       	cpi	r21, 0xE0	; 224
     584:	68 f1       	brcs	.+90     	; 0x5e0 <__addsf3x+0x9c>
     586:	1a 16       	cp	r1, r26
     588:	f0 40       	sbci	r31, 0x00	; 0
     58a:	a2 2f       	mov	r26, r18
     58c:	23 2f       	mov	r18, r19
     58e:	34 2f       	mov	r19, r20
     590:	44 27       	eor	r20, r20
     592:	58 5f       	subi	r21, 0xF8	; 248
     594:	f3 cf       	rjmp	.-26     	; 0x57c <__addsf3x+0x38>
     596:	46 95       	lsr	r20
     598:	37 95       	ror	r19
     59a:	27 95       	ror	r18
     59c:	a7 95       	ror	r26
     59e:	f0 40       	sbci	r31, 0x00	; 0
     5a0:	53 95       	inc	r21
     5a2:	c9 f7       	brne	.-14     	; 0x596 <__addsf3x+0x52>
     5a4:	7e f4       	brtc	.+30     	; 0x5c4 <__addsf3x+0x80>
     5a6:	1f 16       	cp	r1, r31
     5a8:	ba 0b       	sbc	r27, r26
     5aa:	62 0b       	sbc	r22, r18
     5ac:	73 0b       	sbc	r23, r19
     5ae:	84 0b       	sbc	r24, r20
     5b0:	ba f0       	brmi	.+46     	; 0x5e0 <__addsf3x+0x9c>
     5b2:	91 50       	subi	r25, 0x01	; 1
     5b4:	a1 f0       	breq	.+40     	; 0x5de <__addsf3x+0x9a>
     5b6:	ff 0f       	add	r31, r31
     5b8:	bb 1f       	adc	r27, r27
     5ba:	66 1f       	adc	r22, r22
     5bc:	77 1f       	adc	r23, r23
     5be:	88 1f       	adc	r24, r24
     5c0:	c2 f7       	brpl	.-16     	; 0x5b2 <__addsf3x+0x6e>
     5c2:	0e c0       	rjmp	.+28     	; 0x5e0 <__addsf3x+0x9c>
     5c4:	ba 0f       	add	r27, r26
     5c6:	62 1f       	adc	r22, r18
     5c8:	73 1f       	adc	r23, r19
     5ca:	84 1f       	adc	r24, r20
     5cc:	48 f4       	brcc	.+18     	; 0x5e0 <__addsf3x+0x9c>
     5ce:	87 95       	ror	r24
     5d0:	77 95       	ror	r23
     5d2:	67 95       	ror	r22
     5d4:	b7 95       	ror	r27
     5d6:	f7 95       	ror	r31
     5d8:	9e 3f       	cpi	r25, 0xFE	; 254
     5da:	08 f0       	brcs	.+2      	; 0x5de <__addsf3x+0x9a>
     5dc:	b0 cf       	rjmp	.-160    	; 0x53e <__addsf3+0x28>
     5de:	93 95       	inc	r25
     5e0:	88 0f       	add	r24, r24
     5e2:	08 f0       	brcs	.+2      	; 0x5e6 <__addsf3x+0xa2>
     5e4:	99 27       	eor	r25, r25
     5e6:	ee 0f       	add	r30, r30
     5e8:	97 95       	ror	r25
     5ea:	87 95       	ror	r24
     5ec:	08 95       	ret

000005ee <__fixsfsi>:
     5ee:	0e 94 fe 02 	call	0x5fc	; 0x5fc <__fixunssfsi>
     5f2:	68 94       	set
     5f4:	b1 11       	cpse	r27, r1
     5f6:	0c 94 b5 03 	jmp	0x76a	; 0x76a <__fp_szero>
     5fa:	08 95       	ret

000005fc <__fixunssfsi>:
     5fc:	0e 94 9a 03 	call	0x734	; 0x734 <__fp_splitA>
     600:	88 f0       	brcs	.+34     	; 0x624 <__fixunssfsi+0x28>
     602:	9f 57       	subi	r25, 0x7F	; 127
     604:	98 f0       	brcs	.+38     	; 0x62c <__fixunssfsi+0x30>
     606:	b9 2f       	mov	r27, r25
     608:	99 27       	eor	r25, r25
     60a:	b7 51       	subi	r27, 0x17	; 23
     60c:	b0 f0       	brcs	.+44     	; 0x63a <__fixunssfsi+0x3e>
     60e:	e1 f0       	breq	.+56     	; 0x648 <__fixunssfsi+0x4c>
     610:	66 0f       	add	r22, r22
     612:	77 1f       	adc	r23, r23
     614:	88 1f       	adc	r24, r24
     616:	99 1f       	adc	r25, r25
     618:	1a f0       	brmi	.+6      	; 0x620 <__fixunssfsi+0x24>
     61a:	ba 95       	dec	r27
     61c:	c9 f7       	brne	.-14     	; 0x610 <__fixunssfsi+0x14>
     61e:	14 c0       	rjmp	.+40     	; 0x648 <__fixunssfsi+0x4c>
     620:	b1 30       	cpi	r27, 0x01	; 1
     622:	91 f0       	breq	.+36     	; 0x648 <__fixunssfsi+0x4c>
     624:	0e 94 b4 03 	call	0x768	; 0x768 <__fp_zero>
     628:	b1 e0       	ldi	r27, 0x01	; 1
     62a:	08 95       	ret
     62c:	0c 94 b4 03 	jmp	0x768	; 0x768 <__fp_zero>
     630:	67 2f       	mov	r22, r23
     632:	78 2f       	mov	r23, r24
     634:	88 27       	eor	r24, r24
     636:	b8 5f       	subi	r27, 0xF8	; 248
     638:	39 f0       	breq	.+14     	; 0x648 <__fixunssfsi+0x4c>
     63a:	b9 3f       	cpi	r27, 0xF9	; 249
     63c:	cc f3       	brlt	.-14     	; 0x630 <__fixunssfsi+0x34>
     63e:	86 95       	lsr	r24
     640:	77 95       	ror	r23
     642:	67 95       	ror	r22
     644:	b3 95       	inc	r27
     646:	d9 f7       	brne	.-10     	; 0x63e <__fixunssfsi+0x42>
     648:	3e f4       	brtc	.+14     	; 0x658 <__fixunssfsi+0x5c>
     64a:	90 95       	com	r25
     64c:	80 95       	com	r24
     64e:	70 95       	com	r23
     650:	61 95       	neg	r22
     652:	7f 4f       	sbci	r23, 0xFF	; 255
     654:	8f 4f       	sbci	r24, 0xFF	; 255
     656:	9f 4f       	sbci	r25, 0xFF	; 255
     658:	08 95       	ret

0000065a <__floatunsisf>:
     65a:	e8 94       	clt
     65c:	09 c0       	rjmp	.+18     	; 0x670 <__floatsisf+0x12>

0000065e <__floatsisf>:
     65e:	97 fb       	bst	r25, 7
     660:	3e f4       	brtc	.+14     	; 0x670 <__floatsisf+0x12>
     662:	90 95       	com	r25
     664:	80 95       	com	r24
     666:	70 95       	com	r23
     668:	61 95       	neg	r22
     66a:	7f 4f       	sbci	r23, 0xFF	; 255
     66c:	8f 4f       	sbci	r24, 0xFF	; 255
     66e:	9f 4f       	sbci	r25, 0xFF	; 255
     670:	99 23       	and	r25, r25
     672:	a9 f0       	breq	.+42     	; 0x69e <__floatsisf+0x40>
     674:	f9 2f       	mov	r31, r25
     676:	96 e9       	ldi	r25, 0x96	; 150
     678:	bb 27       	eor	r27, r27
     67a:	93 95       	inc	r25
     67c:	f6 95       	lsr	r31
     67e:	87 95       	ror	r24
     680:	77 95       	ror	r23
     682:	67 95       	ror	r22
     684:	b7 95       	ror	r27
     686:	f1 11       	cpse	r31, r1
     688:	f8 cf       	rjmp	.-16     	; 0x67a <__floatsisf+0x1c>
     68a:	fa f4       	brpl	.+62     	; 0x6ca <__floatsisf+0x6c>
     68c:	bb 0f       	add	r27, r27
     68e:	11 f4       	brne	.+4      	; 0x694 <__floatsisf+0x36>
     690:	60 ff       	sbrs	r22, 0
     692:	1b c0       	rjmp	.+54     	; 0x6ca <__floatsisf+0x6c>
     694:	6f 5f       	subi	r22, 0xFF	; 255
     696:	7f 4f       	sbci	r23, 0xFF	; 255
     698:	8f 4f       	sbci	r24, 0xFF	; 255
     69a:	9f 4f       	sbci	r25, 0xFF	; 255
     69c:	16 c0       	rjmp	.+44     	; 0x6ca <__floatsisf+0x6c>
     69e:	88 23       	and	r24, r24
     6a0:	11 f0       	breq	.+4      	; 0x6a6 <__floatsisf+0x48>
     6a2:	96 e9       	ldi	r25, 0x96	; 150
     6a4:	11 c0       	rjmp	.+34     	; 0x6c8 <__floatsisf+0x6a>
     6a6:	77 23       	and	r23, r23
     6a8:	21 f0       	breq	.+8      	; 0x6b2 <__floatsisf+0x54>
     6aa:	9e e8       	ldi	r25, 0x8E	; 142
     6ac:	87 2f       	mov	r24, r23
     6ae:	76 2f       	mov	r23, r22
     6b0:	05 c0       	rjmp	.+10     	; 0x6bc <__floatsisf+0x5e>
     6b2:	66 23       	and	r22, r22
     6b4:	71 f0       	breq	.+28     	; 0x6d2 <__floatsisf+0x74>
     6b6:	96 e8       	ldi	r25, 0x86	; 134
     6b8:	86 2f       	mov	r24, r22
     6ba:	70 e0       	ldi	r23, 0x00	; 0
     6bc:	60 e0       	ldi	r22, 0x00	; 0
     6be:	2a f0       	brmi	.+10     	; 0x6ca <__floatsisf+0x6c>
     6c0:	9a 95       	dec	r25
     6c2:	66 0f       	add	r22, r22
     6c4:	77 1f       	adc	r23, r23
     6c6:	88 1f       	adc	r24, r24
     6c8:	da f7       	brpl	.-10     	; 0x6c0 <__floatsisf+0x62>
     6ca:	88 0f       	add	r24, r24
     6cc:	96 95       	lsr	r25
     6ce:	87 95       	ror	r24
     6d0:	97 f9       	bld	r25, 7
     6d2:	08 95       	ret

000006d4 <__fp_inf>:
     6d4:	97 f9       	bld	r25, 7
     6d6:	9f 67       	ori	r25, 0x7F	; 127
     6d8:	80 e8       	ldi	r24, 0x80	; 128
     6da:	70 e0       	ldi	r23, 0x00	; 0
     6dc:	60 e0       	ldi	r22, 0x00	; 0
     6de:	08 95       	ret

000006e0 <__fp_nan>:
     6e0:	9f ef       	ldi	r25, 0xFF	; 255
     6e2:	80 ec       	ldi	r24, 0xC0	; 192
     6e4:	08 95       	ret

000006e6 <__fp_pscA>:
     6e6:	00 24       	eor	r0, r0
     6e8:	0a 94       	dec	r0
     6ea:	16 16       	cp	r1, r22
     6ec:	17 06       	cpc	r1, r23
     6ee:	18 06       	cpc	r1, r24
     6f0:	09 06       	cpc	r0, r25
     6f2:	08 95       	ret

000006f4 <__fp_pscB>:
     6f4:	00 24       	eor	r0, r0
     6f6:	0a 94       	dec	r0
     6f8:	12 16       	cp	r1, r18
     6fa:	13 06       	cpc	r1, r19
     6fc:	14 06       	cpc	r1, r20
     6fe:	05 06       	cpc	r0, r21
     700:	08 95       	ret

00000702 <__fp_round>:
     702:	09 2e       	mov	r0, r25
     704:	03 94       	inc	r0
     706:	00 0c       	add	r0, r0
     708:	11 f4       	brne	.+4      	; 0x70e <__fp_round+0xc>
     70a:	88 23       	and	r24, r24
     70c:	52 f0       	brmi	.+20     	; 0x722 <__fp_round+0x20>
     70e:	bb 0f       	add	r27, r27
     710:	40 f4       	brcc	.+16     	; 0x722 <__fp_round+0x20>
     712:	bf 2b       	or	r27, r31
     714:	11 f4       	brne	.+4      	; 0x71a <__fp_round+0x18>
     716:	60 ff       	sbrs	r22, 0
     718:	04 c0       	rjmp	.+8      	; 0x722 <__fp_round+0x20>
     71a:	6f 5f       	subi	r22, 0xFF	; 255
     71c:	7f 4f       	sbci	r23, 0xFF	; 255
     71e:	8f 4f       	sbci	r24, 0xFF	; 255
     720:	9f 4f       	sbci	r25, 0xFF	; 255
     722:	08 95       	ret

00000724 <__fp_split3>:
     724:	57 fd       	sbrc	r21, 7
     726:	90 58       	subi	r25, 0x80	; 128
     728:	44 0f       	add	r20, r20
     72a:	55 1f       	adc	r21, r21
     72c:	59 f0       	breq	.+22     	; 0x744 <__fp_splitA+0x10>
     72e:	5f 3f       	cpi	r21, 0xFF	; 255
     730:	71 f0       	breq	.+28     	; 0x74e <__fp_splitA+0x1a>
     732:	47 95       	ror	r20

00000734 <__fp_splitA>:
     734:	88 0f       	add	r24, r24
     736:	97 fb       	bst	r25, 7
     738:	99 1f       	adc	r25, r25
     73a:	61 f0       	breq	.+24     	; 0x754 <__fp_splitA+0x20>
     73c:	9f 3f       	cpi	r25, 0xFF	; 255
     73e:	79 f0       	breq	.+30     	; 0x75e <__fp_splitA+0x2a>
     740:	87 95       	ror	r24
     742:	08 95       	ret
     744:	12 16       	cp	r1, r18
     746:	13 06       	cpc	r1, r19
     748:	14 06       	cpc	r1, r20
     74a:	55 1f       	adc	r21, r21
     74c:	f2 cf       	rjmp	.-28     	; 0x732 <__fp_split3+0xe>
     74e:	46 95       	lsr	r20
     750:	f1 df       	rcall	.-30     	; 0x734 <__fp_splitA>
     752:	08 c0       	rjmp	.+16     	; 0x764 <__fp_splitA+0x30>
     754:	16 16       	cp	r1, r22
     756:	17 06       	cpc	r1, r23
     758:	18 06       	cpc	r1, r24
     75a:	99 1f       	adc	r25, r25
     75c:	f1 cf       	rjmp	.-30     	; 0x740 <__fp_splitA+0xc>
     75e:	86 95       	lsr	r24
     760:	71 05       	cpc	r23, r1
     762:	61 05       	cpc	r22, r1
     764:	08 94       	sec
     766:	08 95       	ret

00000768 <__fp_zero>:
     768:	e8 94       	clt

0000076a <__fp_szero>:
     76a:	bb 27       	eor	r27, r27
     76c:	66 27       	eor	r22, r22
     76e:	77 27       	eor	r23, r23
     770:	cb 01       	movw	r24, r22
     772:	97 f9       	bld	r25, 7
     774:	08 95       	ret

00000776 <__mulsf3>:
     776:	0e 94 ce 03 	call	0x79c	; 0x79c <__mulsf3x>
     77a:	0c 94 81 03 	jmp	0x702	; 0x702 <__fp_round>
     77e:	0e 94 73 03 	call	0x6e6	; 0x6e6 <__fp_pscA>
     782:	38 f0       	brcs	.+14     	; 0x792 <__mulsf3+0x1c>
     784:	0e 94 7a 03 	call	0x6f4	; 0x6f4 <__fp_pscB>
     788:	20 f0       	brcs	.+8      	; 0x792 <__mulsf3+0x1c>
     78a:	95 23       	and	r25, r21
     78c:	11 f0       	breq	.+4      	; 0x792 <__mulsf3+0x1c>
     78e:	0c 94 6a 03 	jmp	0x6d4	; 0x6d4 <__fp_inf>
     792:	0c 94 70 03 	jmp	0x6e0	; 0x6e0 <__fp_nan>
     796:	11 24       	eor	r1, r1
     798:	0c 94 b5 03 	jmp	0x76a	; 0x76a <__fp_szero>

0000079c <__mulsf3x>:
     79c:	0e 94 92 03 	call	0x724	; 0x724 <__fp_split3>
     7a0:	70 f3       	brcs	.-36     	; 0x77e <__mulsf3+0x8>

000007a2 <__mulsf3_pse>:
     7a2:	95 9f       	mul	r25, r21
     7a4:	c1 f3       	breq	.-16     	; 0x796 <__mulsf3+0x20>
     7a6:	95 0f       	add	r25, r21
     7a8:	50 e0       	ldi	r21, 0x00	; 0
     7aa:	55 1f       	adc	r21, r21
     7ac:	62 9f       	mul	r22, r18
     7ae:	f0 01       	movw	r30, r0
     7b0:	72 9f       	mul	r23, r18
     7b2:	bb 27       	eor	r27, r27
     7b4:	f0 0d       	add	r31, r0
     7b6:	b1 1d       	adc	r27, r1
     7b8:	63 9f       	mul	r22, r19
     7ba:	aa 27       	eor	r26, r26
     7bc:	f0 0d       	add	r31, r0
     7be:	b1 1d       	adc	r27, r1
     7c0:	aa 1f       	adc	r26, r26
     7c2:	64 9f       	mul	r22, r20
     7c4:	66 27       	eor	r22, r22
     7c6:	b0 0d       	add	r27, r0
     7c8:	a1 1d       	adc	r26, r1
     7ca:	66 1f       	adc	r22, r22
     7cc:	82 9f       	mul	r24, r18
     7ce:	22 27       	eor	r18, r18
     7d0:	b0 0d       	add	r27, r0
     7d2:	a1 1d       	adc	r26, r1
     7d4:	62 1f       	adc	r22, r18
     7d6:	73 9f       	mul	r23, r19
     7d8:	b0 0d       	add	r27, r0
     7da:	a1 1d       	adc	r26, r1
     7dc:	62 1f       	adc	r22, r18
     7de:	83 9f       	mul	r24, r19
     7e0:	a0 0d       	add	r26, r0
     7e2:	61 1d       	adc	r22, r1
     7e4:	22 1f       	adc	r18, r18
     7e6:	74 9f       	mul	r23, r20
     7e8:	33 27       	eor	r19, r19
     7ea:	a0 0d       	add	r26, r0
     7ec:	61 1d       	adc	r22, r1
     7ee:	23 1f       	adc	r18, r19
     7f0:	84 9f       	mul	r24, r20
     7f2:	60 0d       	add	r22, r0
     7f4:	21 1d       	adc	r18, r1
     7f6:	82 2f       	mov	r24, r18
     7f8:	76 2f       	mov	r23, r22
     7fa:	6a 2f       	mov	r22, r26
     7fc:	11 24       	eor	r1, r1
     7fe:	9f 57       	subi	r25, 0x7F	; 127
     800:	50 40       	sbci	r21, 0x00	; 0
     802:	9a f0       	brmi	.+38     	; 0x82a <__mulsf3_pse+0x88>
     804:	f1 f0       	breq	.+60     	; 0x842 <__mulsf3_pse+0xa0>
     806:	88 23       	and	r24, r24
     808:	4a f0       	brmi	.+18     	; 0x81c <__mulsf3_pse+0x7a>
     80a:	ee 0f       	add	r30, r30
     80c:	ff 1f       	adc	r31, r31
     80e:	bb 1f       	adc	r27, r27
     810:	66 1f       	adc	r22, r22
     812:	77 1f       	adc	r23, r23
     814:	88 1f       	adc	r24, r24
     816:	91 50       	subi	r25, 0x01	; 1
     818:	50 40       	sbci	r21, 0x00	; 0
     81a:	a9 f7       	brne	.-22     	; 0x806 <__mulsf3_pse+0x64>
     81c:	9e 3f       	cpi	r25, 0xFE	; 254
     81e:	51 05       	cpc	r21, r1
     820:	80 f0       	brcs	.+32     	; 0x842 <__mulsf3_pse+0xa0>
     822:	0c 94 6a 03 	jmp	0x6d4	; 0x6d4 <__fp_inf>
     826:	0c 94 b5 03 	jmp	0x76a	; 0x76a <__fp_szero>
     82a:	5f 3f       	cpi	r21, 0xFF	; 255
     82c:	e4 f3       	brlt	.-8      	; 0x826 <__mulsf3_pse+0x84>
     82e:	98 3e       	cpi	r25, 0xE8	; 232
     830:	d4 f3       	brlt	.-12     	; 0x826 <__mulsf3_pse+0x84>
     832:	86 95       	lsr	r24
     834:	77 95       	ror	r23
     836:	67 95       	ror	r22
     838:	b7 95       	ror	r27
     83a:	f7 95       	ror	r31
     83c:	e7 95       	ror	r30
     83e:	9f 5f       	subi	r25, 0xFF	; 255
     840:	c1 f7       	brne	.-16     	; 0x832 <__mulsf3_pse+0x90>
     842:	fe 2b       	or	r31, r30
     844:	88 0f       	add	r24, r24
     846:	91 1d       	adc	r25, r1
     848:	96 95       	lsr	r25
     84a:	87 95       	ror	r24
     84c:	97 f9       	bld	r25, 7
     84e:	08 95       	ret

00000850 <__udivmodsi4>:
     850:	a1 e2       	ldi	r26, 0x21	; 33
     852:	1a 2e       	mov	r1, r26
     854:	aa 1b       	sub	r26, r26
     856:	bb 1b       	sub	r27, r27
     858:	fd 01       	movw	r30, r26
     85a:	0d c0       	rjmp	.+26     	; 0x876 <__udivmodsi4_ep>

0000085c <__udivmodsi4_loop>:
     85c:	aa 1f       	adc	r26, r26
     85e:	bb 1f       	adc	r27, r27
     860:	ee 1f       	adc	r30, r30
     862:	ff 1f       	adc	r31, r31
     864:	a2 17       	cp	r26, r18
     866:	b3 07       	cpc	r27, r19
     868:	e4 07       	cpc	r30, r20
     86a:	f5 07       	cpc	r31, r21
     86c:	20 f0       	brcs	.+8      	; 0x876 <__udivmodsi4_ep>
     86e:	a2 1b       	sub	r26, r18
     870:	b3 0b       	sbc	r27, r19
     872:	e4 0b       	sbc	r30, r20
     874:	f5 0b       	sbc	r31, r21

00000876 <__udivmodsi4_ep>:
     876:	66 1f       	adc	r22, r22
     878:	77 1f       	adc	r23, r23
     87a:	88 1f       	adc	r24, r24
     87c:	99 1f       	adc	r25, r25
     87e:	1a 94       	dec	r1
     880:	69 f7       	brne	.-38     	; 0x85c <__udivmodsi4_loop>
     882:	60 95       	com	r22
     884:	70 95       	com	r23
     886:	80 95       	com	r24
     888:	90 95       	com	r25
     88a:	9b 01       	movw	r18, r22
     88c:	ac 01       	movw	r20, r24
     88e:	bd 01       	movw	r22, r26
     890:	cf 01       	movw	r24, r30
     892:	08 95       	ret

00000894 <dtostrf>:
     894:	ef 92       	push	r14
     896:	0f 93       	push	r16
     898:	1f 93       	push	r17
     89a:	cf 93       	push	r28
     89c:	df 93       	push	r29
     89e:	e8 01       	movw	r28, r16
     8a0:	47 fd       	sbrc	r20, 7
     8a2:	02 c0       	rjmp	.+4      	; 0x8a8 <dtostrf+0x14>
     8a4:	34 e0       	ldi	r19, 0x04	; 4
     8a6:	01 c0       	rjmp	.+2      	; 0x8aa <dtostrf+0x16>
     8a8:	34 e1       	ldi	r19, 0x14	; 20
     8aa:	e4 2f       	mov	r30, r20
     8ac:	44 0f       	add	r20, r20
     8ae:	ff 0b       	sbc	r31, r31
     8b0:	f7 ff       	sbrs	r31, 7
     8b2:	03 c0       	rjmp	.+6      	; 0x8ba <dtostrf+0x26>
     8b4:	f1 95       	neg	r31
     8b6:	e1 95       	neg	r30
     8b8:	f1 09       	sbc	r31, r1
     8ba:	e3 2e       	mov	r14, r19
     8bc:	02 2f       	mov	r16, r18
     8be:	2e 2f       	mov	r18, r30
     8c0:	ae 01       	movw	r20, r28
     8c2:	0e 94 5f 06 	call	0xcbe	; 0xcbe <dtoa_prf>
     8c6:	ce 01       	movw	r24, r28
     8c8:	df 91       	pop	r29
     8ca:	cf 91       	pop	r28
     8cc:	1f 91       	pop	r17
     8ce:	0f 91       	pop	r16
     8d0:	ef 90       	pop	r14
     8d2:	08 95       	ret

000008d4 <sprintf>:
     8d4:	ae e0       	ldi	r26, 0x0E	; 14
     8d6:	b0 e0       	ldi	r27, 0x00	; 0
     8d8:	e0 e7       	ldi	r30, 0x70	; 112
     8da:	f4 e0       	ldi	r31, 0x04	; 4
     8dc:	0c 94 7f 09 	jmp	0x12fe	; 0x12fe <__prologue_saves__+0x1c>
     8e0:	0d 89       	ldd	r16, Y+21	; 0x15
     8e2:	1e 89       	ldd	r17, Y+22	; 0x16
     8e4:	86 e0       	ldi	r24, 0x06	; 6
     8e6:	8c 83       	std	Y+4, r24	; 0x04
     8e8:	1a 83       	std	Y+2, r17	; 0x02
     8ea:	09 83       	std	Y+1, r16	; 0x01
     8ec:	8f ef       	ldi	r24, 0xFF	; 255
     8ee:	9f e7       	ldi	r25, 0x7F	; 127
     8f0:	9e 83       	std	Y+6, r25	; 0x06
     8f2:	8d 83       	std	Y+5, r24	; 0x05
     8f4:	ae 01       	movw	r20, r28
     8f6:	47 5e       	subi	r20, 0xE7	; 231
     8f8:	5f 4f       	sbci	r21, 0xFF	; 255
     8fa:	6f 89       	ldd	r22, Y+23	; 0x17
     8fc:	78 8d       	ldd	r23, Y+24	; 0x18
     8fe:	ce 01       	movw	r24, r28
     900:	01 96       	adiw	r24, 0x01	; 1
     902:	0e 94 8d 04 	call	0x91a	; 0x91a <vfprintf>
     906:	2f 81       	ldd	r18, Y+7	; 0x07
     908:	38 85       	ldd	r19, Y+8	; 0x08
     90a:	f8 01       	movw	r30, r16
     90c:	e2 0f       	add	r30, r18
     90e:	f3 1f       	adc	r31, r19
     910:	10 82       	st	Z, r1
     912:	2e 96       	adiw	r28, 0x0e	; 14
     914:	e4 e0       	ldi	r30, 0x04	; 4
     916:	0c 94 9b 09 	jmp	0x1336	; 0x1336 <__epilogue_restores__+0x1c>

0000091a <vfprintf>:
     91a:	ac e0       	ldi	r26, 0x0C	; 12
     91c:	b0 e0       	ldi	r27, 0x00	; 0
     91e:	e3 e9       	ldi	r30, 0x93	; 147
     920:	f4 e0       	ldi	r31, 0x04	; 4
     922:	0c 94 71 09 	jmp	0x12e2	; 0x12e2 <__prologue_saves__>
     926:	7c 01       	movw	r14, r24
     928:	6b 01       	movw	r12, r22
     92a:	8a 01       	movw	r16, r20
     92c:	fc 01       	movw	r30, r24
     92e:	17 82       	std	Z+7, r1	; 0x07
     930:	16 82       	std	Z+6, r1	; 0x06
     932:	83 81       	ldd	r24, Z+3	; 0x03
     934:	81 ff       	sbrs	r24, 1
     936:	bd c1       	rjmp	.+890    	; 0xcb2 <vfprintf+0x398>
     938:	ce 01       	movw	r24, r28
     93a:	01 96       	adiw	r24, 0x01	; 1
     93c:	4c 01       	movw	r8, r24
     93e:	f7 01       	movw	r30, r14
     940:	93 81       	ldd	r25, Z+3	; 0x03
     942:	f6 01       	movw	r30, r12
     944:	93 fd       	sbrc	r25, 3
     946:	85 91       	lpm	r24, Z+
     948:	93 ff       	sbrs	r25, 3
     94a:	81 91       	ld	r24, Z+
     94c:	6f 01       	movw	r12, r30
     94e:	88 23       	and	r24, r24
     950:	09 f4       	brne	.+2      	; 0x954 <vfprintf+0x3a>
     952:	ab c1       	rjmp	.+854    	; 0xcaa <vfprintf+0x390>
     954:	85 32       	cpi	r24, 0x25	; 37
     956:	39 f4       	brne	.+14     	; 0x966 <vfprintf+0x4c>
     958:	93 fd       	sbrc	r25, 3
     95a:	85 91       	lpm	r24, Z+
     95c:	93 ff       	sbrs	r25, 3
     95e:	81 91       	ld	r24, Z+
     960:	6f 01       	movw	r12, r30
     962:	85 32       	cpi	r24, 0x25	; 37
     964:	29 f4       	brne	.+10     	; 0x970 <vfprintf+0x56>
     966:	b7 01       	movw	r22, r14
     968:	90 e0       	ldi	r25, 0x00	; 0
     96a:	0e 94 db 08 	call	0x11b6	; 0x11b6 <fputc>
     96e:	e7 cf       	rjmp	.-50     	; 0x93e <vfprintf+0x24>
     970:	51 2c       	mov	r5, r1
     972:	31 2c       	mov	r3, r1
     974:	20 e0       	ldi	r18, 0x00	; 0
     976:	20 32       	cpi	r18, 0x20	; 32
     978:	a0 f4       	brcc	.+40     	; 0x9a2 <vfprintf+0x88>
     97a:	8b 32       	cpi	r24, 0x2B	; 43
     97c:	69 f0       	breq	.+26     	; 0x998 <vfprintf+0x7e>
     97e:	30 f4       	brcc	.+12     	; 0x98c <vfprintf+0x72>
     980:	80 32       	cpi	r24, 0x20	; 32
     982:	59 f0       	breq	.+22     	; 0x99a <vfprintf+0x80>
     984:	83 32       	cpi	r24, 0x23	; 35
     986:	69 f4       	brne	.+26     	; 0x9a2 <vfprintf+0x88>
     988:	20 61       	ori	r18, 0x10	; 16
     98a:	2c c0       	rjmp	.+88     	; 0x9e4 <vfprintf+0xca>
     98c:	8d 32       	cpi	r24, 0x2D	; 45
     98e:	39 f0       	breq	.+14     	; 0x99e <vfprintf+0x84>
     990:	80 33       	cpi	r24, 0x30	; 48
     992:	39 f4       	brne	.+14     	; 0x9a2 <vfprintf+0x88>
     994:	21 60       	ori	r18, 0x01	; 1
     996:	26 c0       	rjmp	.+76     	; 0x9e4 <vfprintf+0xca>
     998:	22 60       	ori	r18, 0x02	; 2
     99a:	24 60       	ori	r18, 0x04	; 4
     99c:	23 c0       	rjmp	.+70     	; 0x9e4 <vfprintf+0xca>
     99e:	28 60       	ori	r18, 0x08	; 8
     9a0:	21 c0       	rjmp	.+66     	; 0x9e4 <vfprintf+0xca>
     9a2:	27 fd       	sbrc	r18, 7
     9a4:	27 c0       	rjmp	.+78     	; 0x9f4 <vfprintf+0xda>
     9a6:	30 ed       	ldi	r19, 0xD0	; 208
     9a8:	38 0f       	add	r19, r24
     9aa:	3a 30       	cpi	r19, 0x0A	; 10
     9ac:	78 f4       	brcc	.+30     	; 0x9cc <vfprintf+0xb2>
     9ae:	26 ff       	sbrs	r18, 6
     9b0:	06 c0       	rjmp	.+12     	; 0x9be <vfprintf+0xa4>
     9b2:	fa e0       	ldi	r31, 0x0A	; 10
     9b4:	5f 9e       	mul	r5, r31
     9b6:	30 0d       	add	r19, r0
     9b8:	11 24       	eor	r1, r1
     9ba:	53 2e       	mov	r5, r19
     9bc:	13 c0       	rjmp	.+38     	; 0x9e4 <vfprintf+0xca>
     9be:	8a e0       	ldi	r24, 0x0A	; 10
     9c0:	38 9e       	mul	r3, r24
     9c2:	30 0d       	add	r19, r0
     9c4:	11 24       	eor	r1, r1
     9c6:	33 2e       	mov	r3, r19
     9c8:	20 62       	ori	r18, 0x20	; 32
     9ca:	0c c0       	rjmp	.+24     	; 0x9e4 <vfprintf+0xca>
     9cc:	8e 32       	cpi	r24, 0x2E	; 46
     9ce:	21 f4       	brne	.+8      	; 0x9d8 <vfprintf+0xbe>
     9d0:	26 fd       	sbrc	r18, 6
     9d2:	6b c1       	rjmp	.+726    	; 0xcaa <vfprintf+0x390>
     9d4:	20 64       	ori	r18, 0x40	; 64
     9d6:	06 c0       	rjmp	.+12     	; 0x9e4 <vfprintf+0xca>
     9d8:	8c 36       	cpi	r24, 0x6C	; 108
     9da:	11 f4       	brne	.+4      	; 0x9e0 <vfprintf+0xc6>
     9dc:	20 68       	ori	r18, 0x80	; 128
     9de:	02 c0       	rjmp	.+4      	; 0x9e4 <vfprintf+0xca>
     9e0:	88 36       	cpi	r24, 0x68	; 104
     9e2:	41 f4       	brne	.+16     	; 0x9f4 <vfprintf+0xda>
     9e4:	f6 01       	movw	r30, r12
     9e6:	93 fd       	sbrc	r25, 3
     9e8:	85 91       	lpm	r24, Z+
     9ea:	93 ff       	sbrs	r25, 3
     9ec:	81 91       	ld	r24, Z+
     9ee:	6f 01       	movw	r12, r30
     9f0:	81 11       	cpse	r24, r1
     9f2:	c1 cf       	rjmp	.-126    	; 0x976 <vfprintf+0x5c>
     9f4:	98 2f       	mov	r25, r24
     9f6:	9f 7d       	andi	r25, 0xDF	; 223
     9f8:	95 54       	subi	r25, 0x45	; 69
     9fa:	93 30       	cpi	r25, 0x03	; 3
     9fc:	28 f4       	brcc	.+10     	; 0xa08 <vfprintf+0xee>
     9fe:	0c 5f       	subi	r16, 0xFC	; 252
     a00:	1f 4f       	sbci	r17, 0xFF	; 255
     a02:	ff e3       	ldi	r31, 0x3F	; 63
     a04:	f9 83       	std	Y+1, r31	; 0x01
     a06:	0d c0       	rjmp	.+26     	; 0xa22 <vfprintf+0x108>
     a08:	83 36       	cpi	r24, 0x63	; 99
     a0a:	31 f0       	breq	.+12     	; 0xa18 <vfprintf+0xfe>
     a0c:	83 37       	cpi	r24, 0x73	; 115
     a0e:	71 f0       	breq	.+28     	; 0xa2c <vfprintf+0x112>
     a10:	83 35       	cpi	r24, 0x53	; 83
     a12:	09 f0       	breq	.+2      	; 0xa16 <vfprintf+0xfc>
     a14:	5b c0       	rjmp	.+182    	; 0xacc <vfprintf+0x1b2>
     a16:	22 c0       	rjmp	.+68     	; 0xa5c <vfprintf+0x142>
     a18:	f8 01       	movw	r30, r16
     a1a:	80 81       	ld	r24, Z
     a1c:	89 83       	std	Y+1, r24	; 0x01
     a1e:	0e 5f       	subi	r16, 0xFE	; 254
     a20:	1f 4f       	sbci	r17, 0xFF	; 255
     a22:	44 24       	eor	r4, r4
     a24:	43 94       	inc	r4
     a26:	51 2c       	mov	r5, r1
     a28:	54 01       	movw	r10, r8
     a2a:	15 c0       	rjmp	.+42     	; 0xa56 <vfprintf+0x13c>
     a2c:	38 01       	movw	r6, r16
     a2e:	f2 e0       	ldi	r31, 0x02	; 2
     a30:	6f 0e       	add	r6, r31
     a32:	71 1c       	adc	r7, r1
     a34:	f8 01       	movw	r30, r16
     a36:	a0 80       	ld	r10, Z
     a38:	b1 80       	ldd	r11, Z+1	; 0x01
     a3a:	26 ff       	sbrs	r18, 6
     a3c:	03 c0       	rjmp	.+6      	; 0xa44 <vfprintf+0x12a>
     a3e:	65 2d       	mov	r22, r5
     a40:	70 e0       	ldi	r23, 0x00	; 0
     a42:	02 c0       	rjmp	.+4      	; 0xa48 <vfprintf+0x12e>
     a44:	6f ef       	ldi	r22, 0xFF	; 255
     a46:	7f ef       	ldi	r23, 0xFF	; 255
     a48:	c5 01       	movw	r24, r10
     a4a:	2c 87       	std	Y+12, r18	; 0x0c
     a4c:	0e 94 d0 08 	call	0x11a0	; 0x11a0 <strnlen>
     a50:	2c 01       	movw	r4, r24
     a52:	83 01       	movw	r16, r6
     a54:	2c 85       	ldd	r18, Y+12	; 0x0c
     a56:	2f 77       	andi	r18, 0x7F	; 127
     a58:	22 2e       	mov	r2, r18
     a5a:	17 c0       	rjmp	.+46     	; 0xa8a <vfprintf+0x170>
     a5c:	38 01       	movw	r6, r16
     a5e:	f2 e0       	ldi	r31, 0x02	; 2
     a60:	6f 0e       	add	r6, r31
     a62:	71 1c       	adc	r7, r1
     a64:	f8 01       	movw	r30, r16
     a66:	a0 80       	ld	r10, Z
     a68:	b1 80       	ldd	r11, Z+1	; 0x01
     a6a:	26 ff       	sbrs	r18, 6
     a6c:	03 c0       	rjmp	.+6      	; 0xa74 <vfprintf+0x15a>
     a6e:	65 2d       	mov	r22, r5
     a70:	70 e0       	ldi	r23, 0x00	; 0
     a72:	02 c0       	rjmp	.+4      	; 0xa78 <vfprintf+0x15e>
     a74:	6f ef       	ldi	r22, 0xFF	; 255
     a76:	7f ef       	ldi	r23, 0xFF	; 255
     a78:	c5 01       	movw	r24, r10
     a7a:	2c 87       	std	Y+12, r18	; 0x0c
     a7c:	0e 94 c5 08 	call	0x118a	; 0x118a <strnlen_P>
     a80:	2c 01       	movw	r4, r24
     a82:	2c 85       	ldd	r18, Y+12	; 0x0c
     a84:	20 68       	ori	r18, 0x80	; 128
     a86:	22 2e       	mov	r2, r18
     a88:	83 01       	movw	r16, r6
     a8a:	23 fc       	sbrc	r2, 3
     a8c:	1b c0       	rjmp	.+54     	; 0xac4 <vfprintf+0x1aa>
     a8e:	83 2d       	mov	r24, r3
     a90:	90 e0       	ldi	r25, 0x00	; 0
     a92:	48 16       	cp	r4, r24
     a94:	59 06       	cpc	r5, r25
     a96:	b0 f4       	brcc	.+44     	; 0xac4 <vfprintf+0x1aa>
     a98:	b7 01       	movw	r22, r14
     a9a:	80 e2       	ldi	r24, 0x20	; 32
     a9c:	90 e0       	ldi	r25, 0x00	; 0
     a9e:	0e 94 db 08 	call	0x11b6	; 0x11b6 <fputc>
     aa2:	3a 94       	dec	r3
     aa4:	f4 cf       	rjmp	.-24     	; 0xa8e <vfprintf+0x174>
     aa6:	f5 01       	movw	r30, r10
     aa8:	27 fc       	sbrc	r2, 7
     aaa:	85 91       	lpm	r24, Z+
     aac:	27 fe       	sbrs	r2, 7
     aae:	81 91       	ld	r24, Z+
     ab0:	5f 01       	movw	r10, r30
     ab2:	b7 01       	movw	r22, r14
     ab4:	90 e0       	ldi	r25, 0x00	; 0
     ab6:	0e 94 db 08 	call	0x11b6	; 0x11b6 <fputc>
     aba:	31 10       	cpse	r3, r1
     abc:	3a 94       	dec	r3
     abe:	f1 e0       	ldi	r31, 0x01	; 1
     ac0:	4f 1a       	sub	r4, r31
     ac2:	51 08       	sbc	r5, r1
     ac4:	41 14       	cp	r4, r1
     ac6:	51 04       	cpc	r5, r1
     ac8:	71 f7       	brne	.-36     	; 0xaa6 <vfprintf+0x18c>
     aca:	e5 c0       	rjmp	.+458    	; 0xc96 <vfprintf+0x37c>
     acc:	84 36       	cpi	r24, 0x64	; 100
     ace:	11 f0       	breq	.+4      	; 0xad4 <vfprintf+0x1ba>
     ad0:	89 36       	cpi	r24, 0x69	; 105
     ad2:	39 f5       	brne	.+78     	; 0xb22 <vfprintf+0x208>
     ad4:	f8 01       	movw	r30, r16
     ad6:	27 ff       	sbrs	r18, 7
     ad8:	07 c0       	rjmp	.+14     	; 0xae8 <vfprintf+0x1ce>
     ada:	60 81       	ld	r22, Z
     adc:	71 81       	ldd	r23, Z+1	; 0x01
     ade:	82 81       	ldd	r24, Z+2	; 0x02
     ae0:	93 81       	ldd	r25, Z+3	; 0x03
     ae2:	0c 5f       	subi	r16, 0xFC	; 252
     ae4:	1f 4f       	sbci	r17, 0xFF	; 255
     ae6:	08 c0       	rjmp	.+16     	; 0xaf8 <vfprintf+0x1de>
     ae8:	60 81       	ld	r22, Z
     aea:	71 81       	ldd	r23, Z+1	; 0x01
     aec:	07 2e       	mov	r0, r23
     aee:	00 0c       	add	r0, r0
     af0:	88 0b       	sbc	r24, r24
     af2:	99 0b       	sbc	r25, r25
     af4:	0e 5f       	subi	r16, 0xFE	; 254
     af6:	1f 4f       	sbci	r17, 0xFF	; 255
     af8:	2f 76       	andi	r18, 0x6F	; 111
     afa:	72 2e       	mov	r7, r18
     afc:	97 ff       	sbrs	r25, 7
     afe:	09 c0       	rjmp	.+18     	; 0xb12 <vfprintf+0x1f8>
     b00:	90 95       	com	r25
     b02:	80 95       	com	r24
     b04:	70 95       	com	r23
     b06:	61 95       	neg	r22
     b08:	7f 4f       	sbci	r23, 0xFF	; 255
     b0a:	8f 4f       	sbci	r24, 0xFF	; 255
     b0c:	9f 4f       	sbci	r25, 0xFF	; 255
     b0e:	20 68       	ori	r18, 0x80	; 128
     b10:	72 2e       	mov	r7, r18
     b12:	2a e0       	ldi	r18, 0x0A	; 10
     b14:	30 e0       	ldi	r19, 0x00	; 0
     b16:	a4 01       	movw	r20, r8
     b18:	0e 94 13 09 	call	0x1226	; 0x1226 <__ultoa_invert>
     b1c:	a8 2e       	mov	r10, r24
     b1e:	a8 18       	sub	r10, r8
     b20:	44 c0       	rjmp	.+136    	; 0xbaa <vfprintf+0x290>
     b22:	85 37       	cpi	r24, 0x75	; 117
     b24:	29 f4       	brne	.+10     	; 0xb30 <vfprintf+0x216>
     b26:	2f 7e       	andi	r18, 0xEF	; 239
     b28:	b2 2e       	mov	r11, r18
     b2a:	2a e0       	ldi	r18, 0x0A	; 10
     b2c:	30 e0       	ldi	r19, 0x00	; 0
     b2e:	25 c0       	rjmp	.+74     	; 0xb7a <vfprintf+0x260>
     b30:	f2 2f       	mov	r31, r18
     b32:	f9 7f       	andi	r31, 0xF9	; 249
     b34:	bf 2e       	mov	r11, r31
     b36:	8f 36       	cpi	r24, 0x6F	; 111
     b38:	c1 f0       	breq	.+48     	; 0xb6a <vfprintf+0x250>
     b3a:	18 f4       	brcc	.+6      	; 0xb42 <vfprintf+0x228>
     b3c:	88 35       	cpi	r24, 0x58	; 88
     b3e:	79 f0       	breq	.+30     	; 0xb5e <vfprintf+0x244>
     b40:	b4 c0       	rjmp	.+360    	; 0xcaa <vfprintf+0x390>
     b42:	80 37       	cpi	r24, 0x70	; 112
     b44:	19 f0       	breq	.+6      	; 0xb4c <vfprintf+0x232>
     b46:	88 37       	cpi	r24, 0x78	; 120
     b48:	21 f0       	breq	.+8      	; 0xb52 <vfprintf+0x238>
     b4a:	af c0       	rjmp	.+350    	; 0xcaa <vfprintf+0x390>
     b4c:	2f 2f       	mov	r18, r31
     b4e:	20 61       	ori	r18, 0x10	; 16
     b50:	b2 2e       	mov	r11, r18
     b52:	b4 fe       	sbrs	r11, 4
     b54:	0d c0       	rjmp	.+26     	; 0xb70 <vfprintf+0x256>
     b56:	8b 2d       	mov	r24, r11
     b58:	84 60       	ori	r24, 0x04	; 4
     b5a:	b8 2e       	mov	r11, r24
     b5c:	09 c0       	rjmp	.+18     	; 0xb70 <vfprintf+0x256>
     b5e:	24 ff       	sbrs	r18, 4
     b60:	0a c0       	rjmp	.+20     	; 0xb76 <vfprintf+0x25c>
     b62:	9f 2f       	mov	r25, r31
     b64:	96 60       	ori	r25, 0x06	; 6
     b66:	b9 2e       	mov	r11, r25
     b68:	06 c0       	rjmp	.+12     	; 0xb76 <vfprintf+0x25c>
     b6a:	28 e0       	ldi	r18, 0x08	; 8
     b6c:	30 e0       	ldi	r19, 0x00	; 0
     b6e:	05 c0       	rjmp	.+10     	; 0xb7a <vfprintf+0x260>
     b70:	20 e1       	ldi	r18, 0x10	; 16
     b72:	30 e0       	ldi	r19, 0x00	; 0
     b74:	02 c0       	rjmp	.+4      	; 0xb7a <vfprintf+0x260>
     b76:	20 e1       	ldi	r18, 0x10	; 16
     b78:	32 e0       	ldi	r19, 0x02	; 2
     b7a:	f8 01       	movw	r30, r16
     b7c:	b7 fe       	sbrs	r11, 7
     b7e:	07 c0       	rjmp	.+14     	; 0xb8e <vfprintf+0x274>
     b80:	60 81       	ld	r22, Z
     b82:	71 81       	ldd	r23, Z+1	; 0x01
     b84:	82 81       	ldd	r24, Z+2	; 0x02
     b86:	93 81       	ldd	r25, Z+3	; 0x03
     b88:	0c 5f       	subi	r16, 0xFC	; 252
     b8a:	1f 4f       	sbci	r17, 0xFF	; 255
     b8c:	06 c0       	rjmp	.+12     	; 0xb9a <vfprintf+0x280>
     b8e:	60 81       	ld	r22, Z
     b90:	71 81       	ldd	r23, Z+1	; 0x01
     b92:	80 e0       	ldi	r24, 0x00	; 0
     b94:	90 e0       	ldi	r25, 0x00	; 0
     b96:	0e 5f       	subi	r16, 0xFE	; 254
     b98:	1f 4f       	sbci	r17, 0xFF	; 255
     b9a:	a4 01       	movw	r20, r8
     b9c:	0e 94 13 09 	call	0x1226	; 0x1226 <__ultoa_invert>
     ba0:	a8 2e       	mov	r10, r24
     ba2:	a8 18       	sub	r10, r8
     ba4:	fb 2d       	mov	r31, r11
     ba6:	ff 77       	andi	r31, 0x7F	; 127
     ba8:	7f 2e       	mov	r7, r31
     baa:	76 fe       	sbrs	r7, 6
     bac:	0b c0       	rjmp	.+22     	; 0xbc4 <vfprintf+0x2aa>
     bae:	37 2d       	mov	r19, r7
     bb0:	3e 7f       	andi	r19, 0xFE	; 254
     bb2:	a5 14       	cp	r10, r5
     bb4:	50 f4       	brcc	.+20     	; 0xbca <vfprintf+0x2b0>
     bb6:	74 fe       	sbrs	r7, 4
     bb8:	0a c0       	rjmp	.+20     	; 0xbce <vfprintf+0x2b4>
     bba:	72 fc       	sbrc	r7, 2
     bbc:	08 c0       	rjmp	.+16     	; 0xbce <vfprintf+0x2b4>
     bbe:	37 2d       	mov	r19, r7
     bc0:	3e 7e       	andi	r19, 0xEE	; 238
     bc2:	05 c0       	rjmp	.+10     	; 0xbce <vfprintf+0x2b4>
     bc4:	ba 2c       	mov	r11, r10
     bc6:	37 2d       	mov	r19, r7
     bc8:	03 c0       	rjmp	.+6      	; 0xbd0 <vfprintf+0x2b6>
     bca:	ba 2c       	mov	r11, r10
     bcc:	01 c0       	rjmp	.+2      	; 0xbd0 <vfprintf+0x2b6>
     bce:	b5 2c       	mov	r11, r5
     bd0:	34 ff       	sbrs	r19, 4
     bd2:	0d c0       	rjmp	.+26     	; 0xbee <vfprintf+0x2d4>
     bd4:	fe 01       	movw	r30, r28
     bd6:	ea 0d       	add	r30, r10
     bd8:	f1 1d       	adc	r31, r1
     bda:	80 81       	ld	r24, Z
     bdc:	80 33       	cpi	r24, 0x30	; 48
     bde:	11 f4       	brne	.+4      	; 0xbe4 <vfprintf+0x2ca>
     be0:	39 7e       	andi	r19, 0xE9	; 233
     be2:	09 c0       	rjmp	.+18     	; 0xbf6 <vfprintf+0x2dc>
     be4:	32 ff       	sbrs	r19, 2
     be6:	06 c0       	rjmp	.+12     	; 0xbf4 <vfprintf+0x2da>
     be8:	b3 94       	inc	r11
     bea:	b3 94       	inc	r11
     bec:	04 c0       	rjmp	.+8      	; 0xbf6 <vfprintf+0x2dc>
     bee:	83 2f       	mov	r24, r19
     bf0:	86 78       	andi	r24, 0x86	; 134
     bf2:	09 f0       	breq	.+2      	; 0xbf6 <vfprintf+0x2dc>
     bf4:	b3 94       	inc	r11
     bf6:	33 fd       	sbrc	r19, 3
     bf8:	13 c0       	rjmp	.+38     	; 0xc20 <vfprintf+0x306>
     bfa:	30 ff       	sbrs	r19, 0
     bfc:	06 c0       	rjmp	.+12     	; 0xc0a <vfprintf+0x2f0>
     bfe:	5a 2c       	mov	r5, r10
     c00:	b3 14       	cp	r11, r3
     c02:	18 f4       	brcc	.+6      	; 0xc0a <vfprintf+0x2f0>
     c04:	53 0c       	add	r5, r3
     c06:	5b 18       	sub	r5, r11
     c08:	b3 2c       	mov	r11, r3
     c0a:	b3 14       	cp	r11, r3
     c0c:	68 f4       	brcc	.+26     	; 0xc28 <vfprintf+0x30e>
     c0e:	b7 01       	movw	r22, r14
     c10:	80 e2       	ldi	r24, 0x20	; 32
     c12:	90 e0       	ldi	r25, 0x00	; 0
     c14:	3c 87       	std	Y+12, r19	; 0x0c
     c16:	0e 94 db 08 	call	0x11b6	; 0x11b6 <fputc>
     c1a:	b3 94       	inc	r11
     c1c:	3c 85       	ldd	r19, Y+12	; 0x0c
     c1e:	f5 cf       	rjmp	.-22     	; 0xc0a <vfprintf+0x2f0>
     c20:	b3 14       	cp	r11, r3
     c22:	10 f4       	brcc	.+4      	; 0xc28 <vfprintf+0x30e>
     c24:	3b 18       	sub	r3, r11
     c26:	01 c0       	rjmp	.+2      	; 0xc2a <vfprintf+0x310>
     c28:	31 2c       	mov	r3, r1
     c2a:	34 ff       	sbrs	r19, 4
     c2c:	12 c0       	rjmp	.+36     	; 0xc52 <vfprintf+0x338>
     c2e:	b7 01       	movw	r22, r14
     c30:	80 e3       	ldi	r24, 0x30	; 48
     c32:	90 e0       	ldi	r25, 0x00	; 0
     c34:	3c 87       	std	Y+12, r19	; 0x0c
     c36:	0e 94 db 08 	call	0x11b6	; 0x11b6 <fputc>
     c3a:	3c 85       	ldd	r19, Y+12	; 0x0c
     c3c:	32 ff       	sbrs	r19, 2
     c3e:	17 c0       	rjmp	.+46     	; 0xc6e <vfprintf+0x354>
     c40:	31 fd       	sbrc	r19, 1
     c42:	03 c0       	rjmp	.+6      	; 0xc4a <vfprintf+0x330>
     c44:	88 e7       	ldi	r24, 0x78	; 120
     c46:	90 e0       	ldi	r25, 0x00	; 0
     c48:	02 c0       	rjmp	.+4      	; 0xc4e <vfprintf+0x334>
     c4a:	88 e5       	ldi	r24, 0x58	; 88
     c4c:	90 e0       	ldi	r25, 0x00	; 0
     c4e:	b7 01       	movw	r22, r14
     c50:	0c c0       	rjmp	.+24     	; 0xc6a <vfprintf+0x350>
     c52:	83 2f       	mov	r24, r19
     c54:	86 78       	andi	r24, 0x86	; 134
     c56:	59 f0       	breq	.+22     	; 0xc6e <vfprintf+0x354>
     c58:	31 ff       	sbrs	r19, 1
     c5a:	02 c0       	rjmp	.+4      	; 0xc60 <vfprintf+0x346>
     c5c:	8b e2       	ldi	r24, 0x2B	; 43
     c5e:	01 c0       	rjmp	.+2      	; 0xc62 <vfprintf+0x348>
     c60:	80 e2       	ldi	r24, 0x20	; 32
     c62:	37 fd       	sbrc	r19, 7
     c64:	8d e2       	ldi	r24, 0x2D	; 45
     c66:	b7 01       	movw	r22, r14
     c68:	90 e0       	ldi	r25, 0x00	; 0
     c6a:	0e 94 db 08 	call	0x11b6	; 0x11b6 <fputc>
     c6e:	a5 14       	cp	r10, r5
     c70:	38 f4       	brcc	.+14     	; 0xc80 <vfprintf+0x366>
     c72:	b7 01       	movw	r22, r14
     c74:	80 e3       	ldi	r24, 0x30	; 48
     c76:	90 e0       	ldi	r25, 0x00	; 0
     c78:	0e 94 db 08 	call	0x11b6	; 0x11b6 <fputc>
     c7c:	5a 94       	dec	r5
     c7e:	f7 cf       	rjmp	.-18     	; 0xc6e <vfprintf+0x354>
     c80:	aa 94       	dec	r10
     c82:	f4 01       	movw	r30, r8
     c84:	ea 0d       	add	r30, r10
     c86:	f1 1d       	adc	r31, r1
     c88:	80 81       	ld	r24, Z
     c8a:	b7 01       	movw	r22, r14
     c8c:	90 e0       	ldi	r25, 0x00	; 0
     c8e:	0e 94 db 08 	call	0x11b6	; 0x11b6 <fputc>
     c92:	a1 10       	cpse	r10, r1
     c94:	f5 cf       	rjmp	.-22     	; 0xc80 <vfprintf+0x366>
     c96:	33 20       	and	r3, r3
     c98:	09 f4       	brne	.+2      	; 0xc9c <vfprintf+0x382>
     c9a:	51 ce       	rjmp	.-862    	; 0x93e <vfprintf+0x24>
     c9c:	b7 01       	movw	r22, r14
     c9e:	80 e2       	ldi	r24, 0x20	; 32
     ca0:	90 e0       	ldi	r25, 0x00	; 0
     ca2:	0e 94 db 08 	call	0x11b6	; 0x11b6 <fputc>
     ca6:	3a 94       	dec	r3
     ca8:	f6 cf       	rjmp	.-20     	; 0xc96 <vfprintf+0x37c>
     caa:	f7 01       	movw	r30, r14
     cac:	86 81       	ldd	r24, Z+6	; 0x06
     cae:	97 81       	ldd	r25, Z+7	; 0x07
     cb0:	02 c0       	rjmp	.+4      	; 0xcb6 <vfprintf+0x39c>
     cb2:	8f ef       	ldi	r24, 0xFF	; 255
     cb4:	9f ef       	ldi	r25, 0xFF	; 255
     cb6:	2c 96       	adiw	r28, 0x0c	; 12
     cb8:	e2 e1       	ldi	r30, 0x12	; 18
     cba:	0c 94 8d 09 	jmp	0x131a	; 0x131a <__epilogue_restores__>

00000cbe <dtoa_prf>:
     cbe:	4f 92       	push	r4
     cc0:	5f 92       	push	r5
     cc2:	6f 92       	push	r6
     cc4:	7f 92       	push	r7
     cc6:	9f 92       	push	r9
     cc8:	af 92       	push	r10
     cca:	bf 92       	push	r11
     ccc:	cf 92       	push	r12
     cce:	df 92       	push	r13
     cd0:	ef 92       	push	r14
     cd2:	ff 92       	push	r15
     cd4:	0f 93       	push	r16
     cd6:	1f 93       	push	r17
     cd8:	cf 93       	push	r28
     cda:	df 93       	push	r29
     cdc:	cd b7       	in	r28, 0x3d	; 61
     cde:	de b7       	in	r29, 0x3e	; 62
     ce0:	29 97       	sbiw	r28, 0x09	; 9
     ce2:	0f b6       	in	r0, 0x3f	; 63
     ce4:	f8 94       	cli
     ce6:	de bf       	out	0x3e, r29	; 62
     ce8:	0f be       	out	0x3f, r0	; 63
     cea:	cd bf       	out	0x3d, r28	; 61
     cec:	6a 01       	movw	r12, r20
     cee:	12 2f       	mov	r17, r18
     cf0:	b0 2e       	mov	r11, r16
     cf2:	2b e3       	ldi	r18, 0x3B	; 59
     cf4:	20 17       	cp	r18, r16
     cf6:	20 f0       	brcs	.+8      	; 0xd00 <dtoa_prf+0x42>
     cf8:	ff 24       	eor	r15, r15
     cfa:	f3 94       	inc	r15
     cfc:	f0 0e       	add	r15, r16
     cfe:	02 c0       	rjmp	.+4      	; 0xd04 <dtoa_prf+0x46>
     d00:	bc e3       	ldi	r27, 0x3C	; 60
     d02:	fb 2e       	mov	r15, r27
     d04:	0f 2d       	mov	r16, r15
     d06:	27 e0       	ldi	r18, 0x07	; 7
     d08:	ae 01       	movw	r20, r28
     d0a:	4f 5f       	subi	r20, 0xFF	; 255
     d0c:	5f 4f       	sbci	r21, 0xFF	; 255
     d0e:	0e 94 ed 07 	call	0xfda	; 0xfda <__ftoa_engine>
     d12:	ac 01       	movw	r20, r24
     d14:	89 81       	ldd	r24, Y+1	; 0x01
     d16:	98 2f       	mov	r25, r24
     d18:	99 70       	andi	r25, 0x09	; 9
     d1a:	91 30       	cpi	r25, 0x01	; 1
     d1c:	31 f0       	breq	.+12     	; 0xd2a <dtoa_prf+0x6c>
     d1e:	e1 fc       	sbrc	r14, 1
     d20:	06 c0       	rjmp	.+12     	; 0xd2e <dtoa_prf+0x70>
     d22:	e0 fe       	sbrs	r14, 0
     d24:	06 c0       	rjmp	.+12     	; 0xd32 <dtoa_prf+0x74>
     d26:	90 e2       	ldi	r25, 0x20	; 32
     d28:	05 c0       	rjmp	.+10     	; 0xd34 <dtoa_prf+0x76>
     d2a:	9d e2       	ldi	r25, 0x2D	; 45
     d2c:	03 c0       	rjmp	.+6      	; 0xd34 <dtoa_prf+0x76>
     d2e:	9b e2       	ldi	r25, 0x2B	; 43
     d30:	01 c0       	rjmp	.+2      	; 0xd34 <dtoa_prf+0x76>
     d32:	90 e0       	ldi	r25, 0x00	; 0
     d34:	ee 2d       	mov	r30, r14
     d36:	e0 71       	andi	r30, 0x10	; 16
     d38:	83 ff       	sbrs	r24, 3
     d3a:	3c c0       	rjmp	.+120    	; 0xdb4 <dtoa_prf+0xf6>
     d3c:	91 11       	cpse	r25, r1
     d3e:	02 c0       	rjmp	.+4      	; 0xd44 <dtoa_prf+0x86>
     d40:	83 e0       	ldi	r24, 0x03	; 3
     d42:	01 c0       	rjmp	.+2      	; 0xd46 <dtoa_prf+0x88>
     d44:	84 e0       	ldi	r24, 0x04	; 4
     d46:	81 17       	cp	r24, r17
     d48:	18 f4       	brcc	.+6      	; 0xd50 <dtoa_prf+0x92>
     d4a:	21 2f       	mov	r18, r17
     d4c:	28 1b       	sub	r18, r24
     d4e:	01 c0       	rjmp	.+2      	; 0xd52 <dtoa_prf+0x94>
     d50:	20 e0       	ldi	r18, 0x00	; 0
     d52:	e1 11       	cpse	r30, r1
     d54:	0b c0       	rjmp	.+22     	; 0xd6c <dtoa_prf+0xae>
     d56:	f6 01       	movw	r30, r12
     d58:	82 2f       	mov	r24, r18
     d5a:	30 e2       	ldi	r19, 0x20	; 32
     d5c:	88 23       	and	r24, r24
     d5e:	19 f0       	breq	.+6      	; 0xd66 <dtoa_prf+0xa8>
     d60:	31 93       	st	Z+, r19
     d62:	81 50       	subi	r24, 0x01	; 1
     d64:	fb cf       	rjmp	.-10     	; 0xd5c <dtoa_prf+0x9e>
     d66:	c2 0e       	add	r12, r18
     d68:	d1 1c       	adc	r13, r1
     d6a:	20 e0       	ldi	r18, 0x00	; 0
     d6c:	99 23       	and	r25, r25
     d6e:	29 f0       	breq	.+10     	; 0xd7a <dtoa_prf+0xbc>
     d70:	d6 01       	movw	r26, r12
     d72:	9c 93       	st	X, r25
     d74:	f6 01       	movw	r30, r12
     d76:	31 96       	adiw	r30, 0x01	; 1
     d78:	6f 01       	movw	r12, r30
     d7a:	c6 01       	movw	r24, r12
     d7c:	03 96       	adiw	r24, 0x03	; 3
     d7e:	e2 fe       	sbrs	r14, 2
     d80:	0a c0       	rjmp	.+20     	; 0xd96 <dtoa_prf+0xd8>
     d82:	3e e4       	ldi	r19, 0x4E	; 78
     d84:	d6 01       	movw	r26, r12
     d86:	3c 93       	st	X, r19
     d88:	41 e4       	ldi	r20, 0x41	; 65
     d8a:	11 96       	adiw	r26, 0x01	; 1
     d8c:	4c 93       	st	X, r20
     d8e:	11 97       	sbiw	r26, 0x01	; 1
     d90:	12 96       	adiw	r26, 0x02	; 2
     d92:	3c 93       	st	X, r19
     d94:	06 c0       	rjmp	.+12     	; 0xda2 <dtoa_prf+0xe4>
     d96:	3e e6       	ldi	r19, 0x6E	; 110
     d98:	f6 01       	movw	r30, r12
     d9a:	30 83       	st	Z, r19
     d9c:	41 e6       	ldi	r20, 0x61	; 97
     d9e:	41 83       	std	Z+1, r20	; 0x01
     da0:	32 83       	std	Z+2, r19	; 0x02
     da2:	fc 01       	movw	r30, r24
     da4:	32 2f       	mov	r19, r18
     da6:	40 e2       	ldi	r20, 0x20	; 32
     da8:	33 23       	and	r19, r19
     daa:	09 f4       	brne	.+2      	; 0xdae <dtoa_prf+0xf0>
     dac:	42 c0       	rjmp	.+132    	; 0xe32 <dtoa_prf+0x174>
     dae:	41 93       	st	Z+, r20
     db0:	31 50       	subi	r19, 0x01	; 1
     db2:	fa cf       	rjmp	.-12     	; 0xda8 <dtoa_prf+0xea>
     db4:	82 ff       	sbrs	r24, 2
     db6:	44 c0       	rjmp	.+136    	; 0xe40 <dtoa_prf+0x182>
     db8:	91 11       	cpse	r25, r1
     dba:	02 c0       	rjmp	.+4      	; 0xdc0 <dtoa_prf+0x102>
     dbc:	83 e0       	ldi	r24, 0x03	; 3
     dbe:	01 c0       	rjmp	.+2      	; 0xdc2 <dtoa_prf+0x104>
     dc0:	84 e0       	ldi	r24, 0x04	; 4
     dc2:	81 17       	cp	r24, r17
     dc4:	18 f4       	brcc	.+6      	; 0xdcc <dtoa_prf+0x10e>
     dc6:	21 2f       	mov	r18, r17
     dc8:	28 1b       	sub	r18, r24
     dca:	01 c0       	rjmp	.+2      	; 0xdce <dtoa_prf+0x110>
     dcc:	20 e0       	ldi	r18, 0x00	; 0
     dce:	e1 11       	cpse	r30, r1
     dd0:	0b c0       	rjmp	.+22     	; 0xde8 <dtoa_prf+0x12a>
     dd2:	f6 01       	movw	r30, r12
     dd4:	82 2f       	mov	r24, r18
     dd6:	30 e2       	ldi	r19, 0x20	; 32
     dd8:	88 23       	and	r24, r24
     dda:	19 f0       	breq	.+6      	; 0xde2 <dtoa_prf+0x124>
     ddc:	31 93       	st	Z+, r19
     dde:	81 50       	subi	r24, 0x01	; 1
     de0:	fb cf       	rjmp	.-10     	; 0xdd8 <dtoa_prf+0x11a>
     de2:	c2 0e       	add	r12, r18
     de4:	d1 1c       	adc	r13, r1
     de6:	20 e0       	ldi	r18, 0x00	; 0
     de8:	99 23       	and	r25, r25
     dea:	29 f0       	breq	.+10     	; 0xdf6 <dtoa_prf+0x138>
     dec:	d6 01       	movw	r26, r12
     dee:	9c 93       	st	X, r25
     df0:	f6 01       	movw	r30, r12
     df2:	31 96       	adiw	r30, 0x01	; 1
     df4:	6f 01       	movw	r12, r30
     df6:	c6 01       	movw	r24, r12
     df8:	03 96       	adiw	r24, 0x03	; 3
     dfa:	e2 fe       	sbrs	r14, 2
     dfc:	0b c0       	rjmp	.+22     	; 0xe14 <dtoa_prf+0x156>
     dfe:	39 e4       	ldi	r19, 0x49	; 73
     e00:	d6 01       	movw	r26, r12
     e02:	3c 93       	st	X, r19
     e04:	3e e4       	ldi	r19, 0x4E	; 78
     e06:	11 96       	adiw	r26, 0x01	; 1
     e08:	3c 93       	st	X, r19
     e0a:	11 97       	sbiw	r26, 0x01	; 1
     e0c:	36 e4       	ldi	r19, 0x46	; 70
     e0e:	12 96       	adiw	r26, 0x02	; 2
     e10:	3c 93       	st	X, r19
     e12:	07 c0       	rjmp	.+14     	; 0xe22 <dtoa_prf+0x164>
     e14:	39 e6       	ldi	r19, 0x69	; 105
     e16:	f6 01       	movw	r30, r12
     e18:	30 83       	st	Z, r19
     e1a:	3e e6       	ldi	r19, 0x6E	; 110
     e1c:	31 83       	std	Z+1, r19	; 0x01
     e1e:	36 e6       	ldi	r19, 0x66	; 102
     e20:	32 83       	std	Z+2, r19	; 0x02
     e22:	fc 01       	movw	r30, r24
     e24:	32 2f       	mov	r19, r18
     e26:	40 e2       	ldi	r20, 0x20	; 32
     e28:	33 23       	and	r19, r19
     e2a:	19 f0       	breq	.+6      	; 0xe32 <dtoa_prf+0x174>
     e2c:	41 93       	st	Z+, r20
     e2e:	31 50       	subi	r19, 0x01	; 1
     e30:	fb cf       	rjmp	.-10     	; 0xe28 <dtoa_prf+0x16a>
     e32:	fc 01       	movw	r30, r24
     e34:	e2 0f       	add	r30, r18
     e36:	f1 1d       	adc	r31, r1
     e38:	10 82       	st	Z, r1
     e3a:	8e ef       	ldi	r24, 0xFE	; 254
     e3c:	9f ef       	ldi	r25, 0xFF	; 255
     e3e:	b7 c0       	rjmp	.+366    	; 0xfae <dtoa_prf+0x2f0>
     e40:	f1 e0       	ldi	r31, 0x01	; 1
     e42:	91 11       	cpse	r25, r1
     e44:	01 c0       	rjmp	.+2      	; 0xe48 <dtoa_prf+0x18a>
     e46:	f0 e0       	ldi	r31, 0x00	; 0
     e48:	6f 2f       	mov	r22, r31
     e4a:	70 e0       	ldi	r23, 0x00	; 0
     e4c:	14 16       	cp	r1, r20
     e4e:	15 06       	cpc	r1, r21
     e50:	24 f4       	brge	.+8      	; 0xe5a <dtoa_prf+0x19c>
     e52:	9a 01       	movw	r18, r20
     e54:	2f 5f       	subi	r18, 0xFF	; 255
     e56:	3f 4f       	sbci	r19, 0xFF	; 255
     e58:	02 c0       	rjmp	.+4      	; 0xe5e <dtoa_prf+0x1a0>
     e5a:	21 e0       	ldi	r18, 0x01	; 1
     e5c:	30 e0       	ldi	r19, 0x00	; 0
     e5e:	26 0f       	add	r18, r22
     e60:	37 1f       	adc	r19, r23
     e62:	bb 20       	and	r11, r11
     e64:	29 f0       	breq	.+10     	; 0xe70 <dtoa_prf+0x1b2>
     e66:	6b 2d       	mov	r22, r11
     e68:	70 e0       	ldi	r23, 0x00	; 0
     e6a:	6f 5f       	subi	r22, 0xFF	; 255
     e6c:	7f 4f       	sbci	r23, 0xFF	; 255
     e6e:	02 c0       	rjmp	.+4      	; 0xe74 <dtoa_prf+0x1b6>
     e70:	60 e0       	ldi	r22, 0x00	; 0
     e72:	70 e0       	ldi	r23, 0x00	; 0
     e74:	26 0f       	add	r18, r22
     e76:	37 1f       	adc	r19, r23
     e78:	61 2f       	mov	r22, r17
     e7a:	70 e0       	ldi	r23, 0x00	; 0
     e7c:	26 17       	cp	r18, r22
     e7e:	37 07       	cpc	r19, r23
     e80:	1c f4       	brge	.+6      	; 0xe88 <dtoa_prf+0x1ca>
     e82:	12 1b       	sub	r17, r18
     e84:	21 2f       	mov	r18, r17
     e86:	01 c0       	rjmp	.+2      	; 0xe8a <dtoa_prf+0x1cc>
     e88:	20 e0       	ldi	r18, 0x00	; 0
     e8a:	3e 2d       	mov	r19, r14
     e8c:	38 71       	andi	r19, 0x18	; 24
     e8e:	59 f4       	brne	.+22     	; 0xea6 <dtoa_prf+0x1e8>
     e90:	d6 01       	movw	r26, r12
     e92:	32 2f       	mov	r19, r18
     e94:	60 e2       	ldi	r22, 0x20	; 32
     e96:	33 23       	and	r19, r19
     e98:	19 f0       	breq	.+6      	; 0xea0 <dtoa_prf+0x1e2>
     e9a:	6d 93       	st	X+, r22
     e9c:	31 50       	subi	r19, 0x01	; 1
     e9e:	fb cf       	rjmp	.-10     	; 0xe96 <dtoa_prf+0x1d8>
     ea0:	c2 0e       	add	r12, r18
     ea2:	d1 1c       	adc	r13, r1
     ea4:	20 e0       	ldi	r18, 0x00	; 0
     ea6:	ff 23       	and	r31, r31
     ea8:	31 f0       	breq	.+12     	; 0xeb6 <dtoa_prf+0x1f8>
     eaa:	d6 01       	movw	r26, r12
     eac:	9c 93       	st	X, r25
     eae:	b6 01       	movw	r22, r12
     eb0:	6f 5f       	subi	r22, 0xFF	; 255
     eb2:	7f 4f       	sbci	r23, 0xFF	; 255
     eb4:	6b 01       	movw	r12, r22
     eb6:	e1 11       	cpse	r30, r1
     eb8:	0b c0       	rjmp	.+22     	; 0xed0 <dtoa_prf+0x212>
     eba:	f6 01       	movw	r30, r12
     ebc:	92 2f       	mov	r25, r18
     ebe:	30 e3       	ldi	r19, 0x30	; 48
     ec0:	99 23       	and	r25, r25
     ec2:	19 f0       	breq	.+6      	; 0xeca <dtoa_prf+0x20c>
     ec4:	31 93       	st	Z+, r19
     ec6:	91 50       	subi	r25, 0x01	; 1
     ec8:	fb cf       	rjmp	.-10     	; 0xec0 <dtoa_prf+0x202>
     eca:	c2 0e       	add	r12, r18
     ecc:	d1 1c       	adc	r13, r1
     ece:	20 e0       	ldi	r18, 0x00	; 0
     ed0:	9f 2d       	mov	r25, r15
     ed2:	94 0f       	add	r25, r20
     ed4:	3a 81       	ldd	r19, Y+2	; 0x02
     ed6:	78 2f       	mov	r23, r24
     ed8:	70 71       	andi	r23, 0x10	; 16
     eda:	a7 2e       	mov	r10, r23
     edc:	84 ff       	sbrs	r24, 4
     ede:	03 c0       	rjmp	.+6      	; 0xee6 <dtoa_prf+0x228>
     ee0:	31 33       	cpi	r19, 0x31	; 49
     ee2:	09 f4       	brne	.+2      	; 0xee6 <dtoa_prf+0x228>
     ee4:	91 50       	subi	r25, 0x01	; 1
     ee6:	19 16       	cp	r1, r25
     ee8:	24 f4       	brge	.+8      	; 0xef2 <dtoa_prf+0x234>
     eea:	99 30       	cpi	r25, 0x09	; 9
     eec:	18 f0       	brcs	.+6      	; 0xef4 <dtoa_prf+0x236>
     eee:	98 e0       	ldi	r25, 0x08	; 8
     ef0:	01 c0       	rjmp	.+2      	; 0xef4 <dtoa_prf+0x236>
     ef2:	91 e0       	ldi	r25, 0x01	; 1
     ef4:	e4 2f       	mov	r30, r20
     ef6:	85 2f       	mov	r24, r21
     ef8:	57 ff       	sbrs	r21, 7
     efa:	02 c0       	rjmp	.+4      	; 0xf00 <dtoa_prf+0x242>
     efc:	e0 e0       	ldi	r30, 0x00	; 0
     efe:	80 e0       	ldi	r24, 0x00	; 0
     f00:	6e 2f       	mov	r22, r30
     f02:	78 2f       	mov	r23, r24
     f04:	e0 e0       	ldi	r30, 0x00	; 0
     f06:	f0 e0       	ldi	r31, 0x00	; 0
     f08:	ae e2       	ldi	r26, 0x2E	; 46
     f0a:	9a 2e       	mov	r9, r26
     f0c:	3a 01       	movw	r6, r20
     f0e:	69 1a       	sub	r6, r25
     f10:	71 08       	sbc	r7, r1
     f12:	2a 01       	movw	r4, r20
     f14:	46 1a       	sub	r4, r22
     f16:	57 0a       	sbc	r5, r23
     f18:	0b 2d       	mov	r16, r11
     f1a:	10 e0       	ldi	r17, 0x00	; 0
     f1c:	11 95       	neg	r17
     f1e:	01 95       	neg	r16
     f20:	11 09       	sbc	r17, r1
     f22:	6f 3f       	cpi	r22, 0xFF	; 255
     f24:	8f ef       	ldi	r24, 0xFF	; 255
     f26:	78 07       	cpc	r23, r24
     f28:	29 f4       	brne	.+10     	; 0xf34 <dtoa_prf+0x276>
     f2a:	d6 01       	movw	r26, r12
     f2c:	9c 92       	st	X, r9
     f2e:	c6 01       	movw	r24, r12
     f30:	01 96       	adiw	r24, 0x01	; 1
     f32:	6c 01       	movw	r12, r24
     f34:	46 17       	cp	r20, r22
     f36:	57 07       	cpc	r21, r23
     f38:	84 f0       	brlt	.+32     	; 0xf5a <dtoa_prf+0x29c>
     f3a:	66 16       	cp	r6, r22
     f3c:	77 06       	cpc	r7, r23
     f3e:	6c f4       	brge	.+26     	; 0xf5a <dtoa_prf+0x29c>
     f40:	7f 01       	movw	r14, r30
     f42:	e4 0c       	add	r14, r4
     f44:	f5 1c       	adc	r15, r5
     f46:	a1 e0       	ldi	r26, 0x01	; 1
     f48:	b0 e0       	ldi	r27, 0x00	; 0
     f4a:	ac 0f       	add	r26, r28
     f4c:	bd 1f       	adc	r27, r29
     f4e:	ea 0e       	add	r14, r26
     f50:	fb 1e       	adc	r15, r27
     f52:	d7 01       	movw	r26, r14
     f54:	11 96       	adiw	r26, 0x01	; 1
     f56:	bc 90       	ld	r11, X
     f58:	02 c0       	rjmp	.+4      	; 0xf5e <dtoa_prf+0x2a0>
     f5a:	90 e3       	ldi	r25, 0x30	; 48
     f5c:	b9 2e       	mov	r11, r25
     f5e:	61 50       	subi	r22, 0x01	; 1
     f60:	71 09       	sbc	r23, r1
     f62:	31 96       	adiw	r30, 0x01	; 1
     f64:	c6 01       	movw	r24, r12
     f66:	01 96       	adiw	r24, 0x01	; 1
     f68:	7c 01       	movw	r14, r24
     f6a:	60 17       	cp	r22, r16
     f6c:	71 07       	cpc	r23, r17
     f6e:	24 f0       	brlt	.+8      	; 0xf78 <dtoa_prf+0x2ba>
     f70:	d6 01       	movw	r26, r12
     f72:	bc 92       	st	X, r11
     f74:	6c 01       	movw	r12, r24
     f76:	d5 cf       	rjmp	.-86     	; 0xf22 <dtoa_prf+0x264>
     f78:	64 17       	cp	r22, r20
     f7a:	75 07       	cpc	r23, r21
     f7c:	41 f4       	brne	.+16     	; 0xf8e <dtoa_prf+0x2d0>
     f7e:	36 33       	cpi	r19, 0x36	; 54
     f80:	20 f4       	brcc	.+8      	; 0xf8a <dtoa_prf+0x2cc>
     f82:	35 33       	cpi	r19, 0x35	; 53
     f84:	21 f4       	brne	.+8      	; 0xf8e <dtoa_prf+0x2d0>
     f86:	a1 10       	cpse	r10, r1
     f88:	02 c0       	rjmp	.+4      	; 0xf8e <dtoa_prf+0x2d0>
     f8a:	81 e3       	ldi	r24, 0x31	; 49
     f8c:	b8 2e       	mov	r11, r24
     f8e:	f6 01       	movw	r30, r12
     f90:	b0 82       	st	Z, r11
     f92:	f7 01       	movw	r30, r14
     f94:	82 2f       	mov	r24, r18
     f96:	90 e2       	ldi	r25, 0x20	; 32
     f98:	88 23       	and	r24, r24
     f9a:	19 f0       	breq	.+6      	; 0xfa2 <dtoa_prf+0x2e4>
     f9c:	91 93       	st	Z+, r25
     f9e:	81 50       	subi	r24, 0x01	; 1
     fa0:	fb cf       	rjmp	.-10     	; 0xf98 <dtoa_prf+0x2da>
     fa2:	f7 01       	movw	r30, r14
     fa4:	e2 0f       	add	r30, r18
     fa6:	f1 1d       	adc	r31, r1
     fa8:	10 82       	st	Z, r1
     faa:	80 e0       	ldi	r24, 0x00	; 0
     fac:	90 e0       	ldi	r25, 0x00	; 0
     fae:	29 96       	adiw	r28, 0x09	; 9
     fb0:	0f b6       	in	r0, 0x3f	; 63
     fb2:	f8 94       	cli
     fb4:	de bf       	out	0x3e, r29	; 62
     fb6:	0f be       	out	0x3f, r0	; 63
     fb8:	cd bf       	out	0x3d, r28	; 61
     fba:	df 91       	pop	r29
     fbc:	cf 91       	pop	r28
     fbe:	1f 91       	pop	r17
     fc0:	0f 91       	pop	r16
     fc2:	ff 90       	pop	r15
     fc4:	ef 90       	pop	r14
     fc6:	df 90       	pop	r13
     fc8:	cf 90       	pop	r12
     fca:	bf 90       	pop	r11
     fcc:	af 90       	pop	r10
     fce:	9f 90       	pop	r9
     fd0:	7f 90       	pop	r7
     fd2:	6f 90       	pop	r6
     fd4:	5f 90       	pop	r5
     fd6:	4f 90       	pop	r4
     fd8:	08 95       	ret

00000fda <__ftoa_engine>:
     fda:	28 30       	cpi	r18, 0x08	; 8
     fdc:	08 f0       	brcs	.+2      	; 0xfe0 <__ftoa_engine+0x6>
     fde:	27 e0       	ldi	r18, 0x07	; 7
     fe0:	33 27       	eor	r19, r19
     fe2:	da 01       	movw	r26, r20
     fe4:	99 0f       	add	r25, r25
     fe6:	31 1d       	adc	r19, r1
     fe8:	87 fd       	sbrc	r24, 7
     fea:	91 60       	ori	r25, 0x01	; 1
     fec:	00 96       	adiw	r24, 0x00	; 0
     fee:	61 05       	cpc	r22, r1
     ff0:	71 05       	cpc	r23, r1
     ff2:	39 f4       	brne	.+14     	; 0x1002 <__ftoa_engine+0x28>
     ff4:	32 60       	ori	r19, 0x02	; 2
     ff6:	2e 5f       	subi	r18, 0xFE	; 254
     ff8:	3d 93       	st	X+, r19
     ffa:	30 e3       	ldi	r19, 0x30	; 48
     ffc:	2a 95       	dec	r18
     ffe:	e1 f7       	brne	.-8      	; 0xff8 <__ftoa_engine+0x1e>
    1000:	08 95       	ret
    1002:	9f 3f       	cpi	r25, 0xFF	; 255
    1004:	30 f0       	brcs	.+12     	; 0x1012 <__ftoa_engine+0x38>
    1006:	80 38       	cpi	r24, 0x80	; 128
    1008:	71 05       	cpc	r23, r1
    100a:	61 05       	cpc	r22, r1
    100c:	09 f0       	breq	.+2      	; 0x1010 <__ftoa_engine+0x36>
    100e:	3c 5f       	subi	r19, 0xFC	; 252
    1010:	3c 5f       	subi	r19, 0xFC	; 252
    1012:	3d 93       	st	X+, r19
    1014:	91 30       	cpi	r25, 0x01	; 1
    1016:	08 f0       	brcs	.+2      	; 0x101a <__ftoa_engine+0x40>
    1018:	80 68       	ori	r24, 0x80	; 128
    101a:	91 1d       	adc	r25, r1
    101c:	df 93       	push	r29
    101e:	cf 93       	push	r28
    1020:	1f 93       	push	r17
    1022:	0f 93       	push	r16
    1024:	ff 92       	push	r15
    1026:	ef 92       	push	r14
    1028:	19 2f       	mov	r17, r25
    102a:	98 7f       	andi	r25, 0xF8	; 248
    102c:	96 95       	lsr	r25
    102e:	e9 2f       	mov	r30, r25
    1030:	96 95       	lsr	r25
    1032:	96 95       	lsr	r25
    1034:	e9 0f       	add	r30, r25
    1036:	ff 27       	eor	r31, r31
    1038:	e2 55       	subi	r30, 0x52	; 82
    103a:	ff 4f       	sbci	r31, 0xFF	; 255
    103c:	99 27       	eor	r25, r25
    103e:	33 27       	eor	r19, r19
    1040:	ee 24       	eor	r14, r14
    1042:	ff 24       	eor	r15, r15
    1044:	a7 01       	movw	r20, r14
    1046:	e7 01       	movw	r28, r14
    1048:	05 90       	lpm	r0, Z+
    104a:	08 94       	sec
    104c:	07 94       	ror	r0
    104e:	28 f4       	brcc	.+10     	; 0x105a <__ftoa_engine+0x80>
    1050:	36 0f       	add	r19, r22
    1052:	e7 1e       	adc	r14, r23
    1054:	f8 1e       	adc	r15, r24
    1056:	49 1f       	adc	r20, r25
    1058:	51 1d       	adc	r21, r1
    105a:	66 0f       	add	r22, r22
    105c:	77 1f       	adc	r23, r23
    105e:	88 1f       	adc	r24, r24
    1060:	99 1f       	adc	r25, r25
    1062:	06 94       	lsr	r0
    1064:	a1 f7       	brne	.-24     	; 0x104e <__ftoa_engine+0x74>
    1066:	05 90       	lpm	r0, Z+
    1068:	07 94       	ror	r0
    106a:	28 f4       	brcc	.+10     	; 0x1076 <__ftoa_engine+0x9c>
    106c:	e7 0e       	add	r14, r23
    106e:	f8 1e       	adc	r15, r24
    1070:	49 1f       	adc	r20, r25
    1072:	56 1f       	adc	r21, r22
    1074:	c1 1d       	adc	r28, r1
    1076:	77 0f       	add	r23, r23
    1078:	88 1f       	adc	r24, r24
    107a:	99 1f       	adc	r25, r25
    107c:	66 1f       	adc	r22, r22
    107e:	06 94       	lsr	r0
    1080:	a1 f7       	brne	.-24     	; 0x106a <__ftoa_engine+0x90>
    1082:	05 90       	lpm	r0, Z+
    1084:	07 94       	ror	r0
    1086:	28 f4       	brcc	.+10     	; 0x1092 <__ftoa_engine+0xb8>
    1088:	f8 0e       	add	r15, r24
    108a:	49 1f       	adc	r20, r25
    108c:	56 1f       	adc	r21, r22
    108e:	c7 1f       	adc	r28, r23
    1090:	d1 1d       	adc	r29, r1
    1092:	88 0f       	add	r24, r24
    1094:	99 1f       	adc	r25, r25
    1096:	66 1f       	adc	r22, r22
    1098:	77 1f       	adc	r23, r23
    109a:	06 94       	lsr	r0
    109c:	a1 f7       	brne	.-24     	; 0x1086 <__ftoa_engine+0xac>
    109e:	05 90       	lpm	r0, Z+
    10a0:	07 94       	ror	r0
    10a2:	20 f4       	brcc	.+8      	; 0x10ac <__ftoa_engine+0xd2>
    10a4:	49 0f       	add	r20, r25
    10a6:	56 1f       	adc	r21, r22
    10a8:	c7 1f       	adc	r28, r23
    10aa:	d8 1f       	adc	r29, r24
    10ac:	99 0f       	add	r25, r25
    10ae:	66 1f       	adc	r22, r22
    10b0:	77 1f       	adc	r23, r23
    10b2:	88 1f       	adc	r24, r24
    10b4:	06 94       	lsr	r0
    10b6:	a9 f7       	brne	.-22     	; 0x10a2 <__ftoa_engine+0xc8>
    10b8:	84 91       	lpm	r24, Z
    10ba:	10 95       	com	r17
    10bc:	17 70       	andi	r17, 0x07	; 7
    10be:	41 f0       	breq	.+16     	; 0x10d0 <__ftoa_engine+0xf6>
    10c0:	d6 95       	lsr	r29
    10c2:	c7 95       	ror	r28
    10c4:	57 95       	ror	r21
    10c6:	47 95       	ror	r20
    10c8:	f7 94       	ror	r15
    10ca:	e7 94       	ror	r14
    10cc:	1a 95       	dec	r17
    10ce:	c1 f7       	brne	.-16     	; 0x10c0 <__ftoa_engine+0xe6>
    10d0:	e4 e5       	ldi	r30, 0x54	; 84
    10d2:	f0 e0       	ldi	r31, 0x00	; 0
    10d4:	68 94       	set
    10d6:	15 90       	lpm	r1, Z+
    10d8:	15 91       	lpm	r17, Z+
    10da:	35 91       	lpm	r19, Z+
    10dc:	65 91       	lpm	r22, Z+
    10de:	95 91       	lpm	r25, Z+
    10e0:	05 90       	lpm	r0, Z+
    10e2:	7f e2       	ldi	r23, 0x2F	; 47
    10e4:	73 95       	inc	r23
    10e6:	e1 18       	sub	r14, r1
    10e8:	f1 0a       	sbc	r15, r17
    10ea:	43 0b       	sbc	r20, r19
    10ec:	56 0b       	sbc	r21, r22
    10ee:	c9 0b       	sbc	r28, r25
    10f0:	d0 09       	sbc	r29, r0
    10f2:	c0 f7       	brcc	.-16     	; 0x10e4 <__ftoa_engine+0x10a>
    10f4:	e1 0c       	add	r14, r1
    10f6:	f1 1e       	adc	r15, r17
    10f8:	43 1f       	adc	r20, r19
    10fa:	56 1f       	adc	r21, r22
    10fc:	c9 1f       	adc	r28, r25
    10fe:	d0 1d       	adc	r29, r0
    1100:	7e f4       	brtc	.+30     	; 0x1120 <__ftoa_engine+0x146>
    1102:	70 33       	cpi	r23, 0x30	; 48
    1104:	11 f4       	brne	.+4      	; 0x110a <__ftoa_engine+0x130>
    1106:	8a 95       	dec	r24
    1108:	e6 cf       	rjmp	.-52     	; 0x10d6 <__ftoa_engine+0xfc>
    110a:	e8 94       	clt
    110c:	01 50       	subi	r16, 0x01	; 1
    110e:	30 f0       	brcs	.+12     	; 0x111c <__ftoa_engine+0x142>
    1110:	08 0f       	add	r16, r24
    1112:	0a f4       	brpl	.+2      	; 0x1116 <__ftoa_engine+0x13c>
    1114:	00 27       	eor	r16, r16
    1116:	02 17       	cp	r16, r18
    1118:	08 f4       	brcc	.+2      	; 0x111c <__ftoa_engine+0x142>
    111a:	20 2f       	mov	r18, r16
    111c:	23 95       	inc	r18
    111e:	02 2f       	mov	r16, r18
    1120:	7a 33       	cpi	r23, 0x3A	; 58
    1122:	28 f0       	brcs	.+10     	; 0x112e <__ftoa_engine+0x154>
    1124:	79 e3       	ldi	r23, 0x39	; 57
    1126:	7d 93       	st	X+, r23
    1128:	2a 95       	dec	r18
    112a:	e9 f7       	brne	.-6      	; 0x1126 <__ftoa_engine+0x14c>
    112c:	10 c0       	rjmp	.+32     	; 0x114e <__ftoa_engine+0x174>
    112e:	7d 93       	st	X+, r23
    1130:	2a 95       	dec	r18
    1132:	89 f6       	brne	.-94     	; 0x10d6 <__ftoa_engine+0xfc>
    1134:	06 94       	lsr	r0
    1136:	97 95       	ror	r25
    1138:	67 95       	ror	r22
    113a:	37 95       	ror	r19
    113c:	17 95       	ror	r17
    113e:	17 94       	ror	r1
    1140:	e1 18       	sub	r14, r1
    1142:	f1 0a       	sbc	r15, r17
    1144:	43 0b       	sbc	r20, r19
    1146:	56 0b       	sbc	r21, r22
    1148:	c9 0b       	sbc	r28, r25
    114a:	d0 09       	sbc	r29, r0
    114c:	98 f0       	brcs	.+38     	; 0x1174 <__ftoa_engine+0x19a>
    114e:	23 95       	inc	r18
    1150:	7e 91       	ld	r23, -X
    1152:	73 95       	inc	r23
    1154:	7a 33       	cpi	r23, 0x3A	; 58
    1156:	08 f0       	brcs	.+2      	; 0x115a <__ftoa_engine+0x180>
    1158:	70 e3       	ldi	r23, 0x30	; 48
    115a:	7c 93       	st	X, r23
    115c:	20 13       	cpse	r18, r16
    115e:	b8 f7       	brcc	.-18     	; 0x114e <__ftoa_engine+0x174>
    1160:	7e 91       	ld	r23, -X
    1162:	70 61       	ori	r23, 0x10	; 16
    1164:	7d 93       	st	X+, r23
    1166:	30 f0       	brcs	.+12     	; 0x1174 <__ftoa_engine+0x19a>
    1168:	83 95       	inc	r24
    116a:	71 e3       	ldi	r23, 0x31	; 49
    116c:	7d 93       	st	X+, r23
    116e:	70 e3       	ldi	r23, 0x30	; 48
    1170:	2a 95       	dec	r18
    1172:	e1 f7       	brne	.-8      	; 0x116c <__ftoa_engine+0x192>
    1174:	11 24       	eor	r1, r1
    1176:	ef 90       	pop	r14
    1178:	ff 90       	pop	r15
    117a:	0f 91       	pop	r16
    117c:	1f 91       	pop	r17
    117e:	cf 91       	pop	r28
    1180:	df 91       	pop	r29
    1182:	99 27       	eor	r25, r25
    1184:	87 fd       	sbrc	r24, 7
    1186:	90 95       	com	r25
    1188:	08 95       	ret

0000118a <strnlen_P>:
    118a:	fc 01       	movw	r30, r24
    118c:	05 90       	lpm	r0, Z+
    118e:	61 50       	subi	r22, 0x01	; 1
    1190:	70 40       	sbci	r23, 0x00	; 0
    1192:	01 10       	cpse	r0, r1
    1194:	d8 f7       	brcc	.-10     	; 0x118c <strnlen_P+0x2>
    1196:	80 95       	com	r24
    1198:	90 95       	com	r25
    119a:	8e 0f       	add	r24, r30
    119c:	9f 1f       	adc	r25, r31
    119e:	08 95       	ret

000011a0 <strnlen>:
    11a0:	fc 01       	movw	r30, r24
    11a2:	61 50       	subi	r22, 0x01	; 1
    11a4:	70 40       	sbci	r23, 0x00	; 0
    11a6:	01 90       	ld	r0, Z+
    11a8:	01 10       	cpse	r0, r1
    11aa:	d8 f7       	brcc	.-10     	; 0x11a2 <strnlen+0x2>
    11ac:	80 95       	com	r24
    11ae:	90 95       	com	r25
    11b0:	8e 0f       	add	r24, r30
    11b2:	9f 1f       	adc	r25, r31
    11b4:	08 95       	ret

000011b6 <fputc>:
    11b6:	0f 93       	push	r16
    11b8:	1f 93       	push	r17
    11ba:	cf 93       	push	r28
    11bc:	df 93       	push	r29
    11be:	fb 01       	movw	r30, r22
    11c0:	23 81       	ldd	r18, Z+3	; 0x03
    11c2:	21 fd       	sbrc	r18, 1
    11c4:	03 c0       	rjmp	.+6      	; 0x11cc <fputc+0x16>
    11c6:	8f ef       	ldi	r24, 0xFF	; 255
    11c8:	9f ef       	ldi	r25, 0xFF	; 255
    11ca:	28 c0       	rjmp	.+80     	; 0x121c <fputc+0x66>
    11cc:	22 ff       	sbrs	r18, 2
    11ce:	16 c0       	rjmp	.+44     	; 0x11fc <fputc+0x46>
    11d0:	46 81       	ldd	r20, Z+6	; 0x06
    11d2:	57 81       	ldd	r21, Z+7	; 0x07
    11d4:	24 81       	ldd	r18, Z+4	; 0x04
    11d6:	35 81       	ldd	r19, Z+5	; 0x05
    11d8:	42 17       	cp	r20, r18
    11da:	53 07       	cpc	r21, r19
    11dc:	44 f4       	brge	.+16     	; 0x11ee <fputc+0x38>
    11de:	a0 81       	ld	r26, Z
    11e0:	b1 81       	ldd	r27, Z+1	; 0x01
    11e2:	9d 01       	movw	r18, r26
    11e4:	2f 5f       	subi	r18, 0xFF	; 255
    11e6:	3f 4f       	sbci	r19, 0xFF	; 255
    11e8:	31 83       	std	Z+1, r19	; 0x01
    11ea:	20 83       	st	Z, r18
    11ec:	8c 93       	st	X, r24
    11ee:	26 81       	ldd	r18, Z+6	; 0x06
    11f0:	37 81       	ldd	r19, Z+7	; 0x07
    11f2:	2f 5f       	subi	r18, 0xFF	; 255
    11f4:	3f 4f       	sbci	r19, 0xFF	; 255
    11f6:	37 83       	std	Z+7, r19	; 0x07
    11f8:	26 83       	std	Z+6, r18	; 0x06
    11fa:	10 c0       	rjmp	.+32     	; 0x121c <fputc+0x66>
    11fc:	eb 01       	movw	r28, r22
    11fe:	09 2f       	mov	r16, r25
    1200:	18 2f       	mov	r17, r24
    1202:	00 84       	ldd	r0, Z+8	; 0x08
    1204:	f1 85       	ldd	r31, Z+9	; 0x09
    1206:	e0 2d       	mov	r30, r0
    1208:	09 95       	icall
    120a:	89 2b       	or	r24, r25
    120c:	e1 f6       	brne	.-72     	; 0x11c6 <fputc+0x10>
    120e:	8e 81       	ldd	r24, Y+6	; 0x06
    1210:	9f 81       	ldd	r25, Y+7	; 0x07
    1212:	01 96       	adiw	r24, 0x01	; 1
    1214:	9f 83       	std	Y+7, r25	; 0x07
    1216:	8e 83       	std	Y+6, r24	; 0x06
    1218:	81 2f       	mov	r24, r17
    121a:	90 2f       	mov	r25, r16
    121c:	df 91       	pop	r29
    121e:	cf 91       	pop	r28
    1220:	1f 91       	pop	r17
    1222:	0f 91       	pop	r16
    1224:	08 95       	ret

00001226 <__ultoa_invert>:
    1226:	fa 01       	movw	r30, r20
    1228:	aa 27       	eor	r26, r26
    122a:	28 30       	cpi	r18, 0x08	; 8
    122c:	51 f1       	breq	.+84     	; 0x1282 <__ultoa_invert+0x5c>
    122e:	20 31       	cpi	r18, 0x10	; 16
    1230:	81 f1       	breq	.+96     	; 0x1292 <__ultoa_invert+0x6c>
    1232:	e8 94       	clt
    1234:	6f 93       	push	r22
    1236:	6e 7f       	andi	r22, 0xFE	; 254
    1238:	6e 5f       	subi	r22, 0xFE	; 254
    123a:	7f 4f       	sbci	r23, 0xFF	; 255
    123c:	8f 4f       	sbci	r24, 0xFF	; 255
    123e:	9f 4f       	sbci	r25, 0xFF	; 255
    1240:	af 4f       	sbci	r26, 0xFF	; 255
    1242:	b1 e0       	ldi	r27, 0x01	; 1
    1244:	3e d0       	rcall	.+124    	; 0x12c2 <__ultoa_invert+0x9c>
    1246:	b4 e0       	ldi	r27, 0x04	; 4
    1248:	3c d0       	rcall	.+120    	; 0x12c2 <__ultoa_invert+0x9c>
    124a:	67 0f       	add	r22, r23
    124c:	78 1f       	adc	r23, r24
    124e:	89 1f       	adc	r24, r25
    1250:	9a 1f       	adc	r25, r26
    1252:	a1 1d       	adc	r26, r1
    1254:	68 0f       	add	r22, r24
    1256:	79 1f       	adc	r23, r25
    1258:	8a 1f       	adc	r24, r26
    125a:	91 1d       	adc	r25, r1
    125c:	a1 1d       	adc	r26, r1
    125e:	6a 0f       	add	r22, r26
    1260:	71 1d       	adc	r23, r1
    1262:	81 1d       	adc	r24, r1
    1264:	91 1d       	adc	r25, r1
    1266:	a1 1d       	adc	r26, r1
    1268:	20 d0       	rcall	.+64     	; 0x12aa <__ultoa_invert+0x84>
    126a:	09 f4       	brne	.+2      	; 0x126e <__ultoa_invert+0x48>
    126c:	68 94       	set
    126e:	3f 91       	pop	r19
    1270:	2a e0       	ldi	r18, 0x0A	; 10
    1272:	26 9f       	mul	r18, r22
    1274:	11 24       	eor	r1, r1
    1276:	30 19       	sub	r19, r0
    1278:	30 5d       	subi	r19, 0xD0	; 208
    127a:	31 93       	st	Z+, r19
    127c:	de f6       	brtc	.-74     	; 0x1234 <__ultoa_invert+0xe>
    127e:	cf 01       	movw	r24, r30
    1280:	08 95       	ret
    1282:	46 2f       	mov	r20, r22
    1284:	47 70       	andi	r20, 0x07	; 7
    1286:	40 5d       	subi	r20, 0xD0	; 208
    1288:	41 93       	st	Z+, r20
    128a:	b3 e0       	ldi	r27, 0x03	; 3
    128c:	0f d0       	rcall	.+30     	; 0x12ac <__ultoa_invert+0x86>
    128e:	c9 f7       	brne	.-14     	; 0x1282 <__ultoa_invert+0x5c>
    1290:	f6 cf       	rjmp	.-20     	; 0x127e <__ultoa_invert+0x58>
    1292:	46 2f       	mov	r20, r22
    1294:	4f 70       	andi	r20, 0x0F	; 15
    1296:	40 5d       	subi	r20, 0xD0	; 208
    1298:	4a 33       	cpi	r20, 0x3A	; 58
    129a:	18 f0       	brcs	.+6      	; 0x12a2 <__ultoa_invert+0x7c>
    129c:	49 5d       	subi	r20, 0xD9	; 217
    129e:	31 fd       	sbrc	r19, 1
    12a0:	40 52       	subi	r20, 0x20	; 32
    12a2:	41 93       	st	Z+, r20
    12a4:	02 d0       	rcall	.+4      	; 0x12aa <__ultoa_invert+0x84>
    12a6:	a9 f7       	brne	.-22     	; 0x1292 <__ultoa_invert+0x6c>
    12a8:	ea cf       	rjmp	.-44     	; 0x127e <__ultoa_invert+0x58>
    12aa:	b4 e0       	ldi	r27, 0x04	; 4
    12ac:	a6 95       	lsr	r26
    12ae:	97 95       	ror	r25
    12b0:	87 95       	ror	r24
    12b2:	77 95       	ror	r23
    12b4:	67 95       	ror	r22
    12b6:	ba 95       	dec	r27
    12b8:	c9 f7       	brne	.-14     	; 0x12ac <__ultoa_invert+0x86>
    12ba:	00 97       	sbiw	r24, 0x00	; 0
    12bc:	61 05       	cpc	r22, r1
    12be:	71 05       	cpc	r23, r1
    12c0:	08 95       	ret
    12c2:	9b 01       	movw	r18, r22
    12c4:	ac 01       	movw	r20, r24
    12c6:	0a 2e       	mov	r0, r26
    12c8:	06 94       	lsr	r0
    12ca:	57 95       	ror	r21
    12cc:	47 95       	ror	r20
    12ce:	37 95       	ror	r19
    12d0:	27 95       	ror	r18
    12d2:	ba 95       	dec	r27
    12d4:	c9 f7       	brne	.-14     	; 0x12c8 <__ultoa_invert+0xa2>
    12d6:	62 0f       	add	r22, r18
    12d8:	73 1f       	adc	r23, r19
    12da:	84 1f       	adc	r24, r20
    12dc:	95 1f       	adc	r25, r21
    12de:	a0 1d       	adc	r26, r0
    12e0:	08 95       	ret

000012e2 <__prologue_saves__>:
    12e2:	2f 92       	push	r2
    12e4:	3f 92       	push	r3
    12e6:	4f 92       	push	r4
    12e8:	5f 92       	push	r5
    12ea:	6f 92       	push	r6
    12ec:	7f 92       	push	r7
    12ee:	8f 92       	push	r8
    12f0:	9f 92       	push	r9
    12f2:	af 92       	push	r10
    12f4:	bf 92       	push	r11
    12f6:	cf 92       	push	r12
    12f8:	df 92       	push	r13
    12fa:	ef 92       	push	r14
    12fc:	ff 92       	push	r15
    12fe:	0f 93       	push	r16
    1300:	1f 93       	push	r17
    1302:	cf 93       	push	r28
    1304:	df 93       	push	r29
    1306:	cd b7       	in	r28, 0x3d	; 61
    1308:	de b7       	in	r29, 0x3e	; 62
    130a:	ca 1b       	sub	r28, r26
    130c:	db 0b       	sbc	r29, r27
    130e:	0f b6       	in	r0, 0x3f	; 63
    1310:	f8 94       	cli
    1312:	de bf       	out	0x3e, r29	; 62
    1314:	0f be       	out	0x3f, r0	; 63
    1316:	cd bf       	out	0x3d, r28	; 61
    1318:	09 94       	ijmp

0000131a <__epilogue_restores__>:
    131a:	2a 88       	ldd	r2, Y+18	; 0x12
    131c:	39 88       	ldd	r3, Y+17	; 0x11
    131e:	48 88       	ldd	r4, Y+16	; 0x10
    1320:	5f 84       	ldd	r5, Y+15	; 0x0f
    1322:	6e 84       	ldd	r6, Y+14	; 0x0e
    1324:	7d 84       	ldd	r7, Y+13	; 0x0d
    1326:	8c 84       	ldd	r8, Y+12	; 0x0c
    1328:	9b 84       	ldd	r9, Y+11	; 0x0b
    132a:	aa 84       	ldd	r10, Y+10	; 0x0a
    132c:	b9 84       	ldd	r11, Y+9	; 0x09
    132e:	c8 84       	ldd	r12, Y+8	; 0x08
    1330:	df 80       	ldd	r13, Y+7	; 0x07
    1332:	ee 80       	ldd	r14, Y+6	; 0x06
    1334:	fd 80       	ldd	r15, Y+5	; 0x05
    1336:	0c 81       	ldd	r16, Y+4	; 0x04
    1338:	1b 81       	ldd	r17, Y+3	; 0x03
    133a:	aa 81       	ldd	r26, Y+2	; 0x02
    133c:	b9 81       	ldd	r27, Y+1	; 0x01
    133e:	ce 0f       	add	r28, r30
    1340:	d1 1d       	adc	r29, r1
    1342:	0f b6       	in	r0, 0x3f	; 63
    1344:	f8 94       	cli
    1346:	de bf       	out	0x3e, r29	; 62
    1348:	0f be       	out	0x3f, r0	; 63
    134a:	cd bf       	out	0x3d, r28	; 61
    134c:	ed 01       	movw	r28, r26
    134e:	08 95       	ret

00001350 <_exit>:
    1350:	f8 94       	cli

00001352 <__stop_program>:
    1352:	ff cf       	rjmp	.-2      	; 0x1352 <__stop_program>
